(dp1
S'output'
p2
S"<type 'exceptions.NameError'> name 'audience_id' is not defined"
p3
sS'layer'
p4
S'/Users/mac/Documents/shareknowledge/applications/welcome/views/default/question.html'
p5
sS'code'
p6
S'left_sidebar_enabled = False\nresponse.write(\'\\n\', escape=False)\nright_sidebar_enabled=True\nresponse.write(\'\\n\', escape=False)\nresponse.write(\'<!--[if HTML5]><![endif]-->\\n<!DOCTYPE html>\\n<!-- paulirish.com/2008/conditional-stylesheets-vs-css-hacks-answer-neither/ -->\\n<!--[if lt IE 7]><html class="ie ie6 ie-lte9 ie-lte8 ie-lte7 no-js" lang="\', escape=False)\nresponse.write(T.accepted_language or \'en\')\nresponse.write(\'"> <![endif]-->\\n<!--[if IE 7]><html class="ie ie7 ie-lte9 ie-lte8 ie-lte7 no-js" lang="\', escape=False)\nresponse.write(T.accepted_language or \'en\')\nresponse.write(\'"> <![endif]-->\\n<!--[if IE 8]><html class="ie ie8 ie-lte9 ie-lte8 no-js" lang="\', escape=False)\nresponse.write(T.accepted_language or \'en\')\nresponse.write(\'"> <![endif]-->\\n<!--[if IE 9]><html class="ie9 ie-lte9 no-js" lang="\', escape=False)\nresponse.write(T.accepted_language or \'en\')\nresponse.write(\'"> <![endif]-->\\n<!--[if (gt IE 9)|!(IE)]><!--> <html class="no-js" lang="\', escape=False)\nresponse.write(T.accepted_language or \'en\')\nresponse.write(\'"> <!--<![endif]-->\\n<head>\\n<title>\', escape=False)\nresponse.write(response.title or request.application)\nresponse.write(\'</title>\\n  <!--[if !HTML5]>\\n      <meta http-equiv="X-UA-Compatible" content="IE=edge\', escape=False)\nresponse.write(not request.is_local and \',chrome=1\' or \'\')\nresponse.write(\'">\\n  <![endif]-->\\n  <!-- www.phpied.com/conditional-comments-block-downloads/ -->\\n  <!-- Always force latest IE rendering engine\\n       (even in intranet) & Chrome Frame\\n       Remove this if you use the .htaccess -->\\n\\t   \\n  <meta charset="utf-8" />\\n\\n  <!-- http://dev.w3.org/html5/markup/meta.name.html -->\\n  <meta name="application-name" content="\', escape=False)\nresponse.write(request.application)\nresponse.write(\'" />\\n\\n  <!-- Speaking of Google, don\\\'t forget to set your site up:\\n       http://google.com/webmasters -->\\n  <meta name="google-site-verification" content="" />\\n\\n  <!--  Mobile Viewport Fix\\n        j.mp/mobileviewport & davidbcalhoun.com/2010/viewport-metatag\\n        device-width: Occupy full width of the screen in its current orientation\\n        initial-scale = 1.0 retains dimensions instead of zooming out if page height > device height\\n        user-scalable = yes allows the user to zoom in -->\\n  <meta name="viewport" content="width=device-width, initial-scale=1.0" />\\n\\n  <link rel="shortcut icon" href="\', escape=False)\nresponse.write(URL(\'static\',\'images/favicon.ico\'))\nresponse.write(\'" type="image/x-icon">\\n  <link rel="apple-touch-icon" href="\', escape=False)\nresponse.write(URL(\'static\',\'images/favicon.png\'))\nresponse.write(\'">\\n<!--google font-->\\n<!--<link href=\\\'http://fonts.googleapis.com/css?family=Roboto+Slab:100&subset=vietnamese\\\' rel=\\\'stylesheet\\\' type=\\\'text/css\\\'>-->\\n\\n<link href=\\\'http://fonts.googleapis.com/css?family=Roboto+Slab:400,300,100&subset=vietnamese\\\' rel=\\\'stylesheet\\\' type=\\\'text/css\\\'>\\n\\n  <!-- All JavaScript at the bottom, except for Modernizr which enables\\n       HTML5 elements & feature detects -->\\n  <script src="\', escape=False)\nresponse.write(URL(\'static\',\'js/modernizr.custom.js\'))\nresponse.write(\'"></script>\\n  <script src="\', escape=False)\nresponse.write(URL(\'static\',\'js/ckeditor/ckeditor.js\'))\nresponse.write(\'"></script>\\n\\n<script type="text/javascript" src="\', escape=False)\nresponse.write(URL(\'static\',\'js/tinymce/tinymce.min.js\'))\nresponse.write(\'"></script>\\n\\n<script src="//ajax.googleapis.com/ajax/libs/jquery/1.10.2/jquery.min.js"></script>\\n<script type="text/javascript">\\ntinymce.init({\\n    selector: "textarea"\\n });\\n</script>\\n\\n  <!-- include stylesheets -->\\n  \', escape=False)\nresponse.files.append(URL(\'static\',\'css/web2py.css\'))\nresponse.files.append(URL(\'static\',\'css/bootstrap.min.css\'))\nresponse.files.append(URL(\'static\',\'css/bootstrap-responsive.min.css\'))\nresponse.files.append(URL(\'static\',\'css/web2py_bootstrap.css\'))\nresponse.write(\'\\n\\n  \', escape=False)\nresponse.write(\'<script type="text/javascript"><!--\\n    // These variables are used by the web2py_ajax_init function in web2py_ajax.js (which is loaded below).\\n    var w2p_ajax_confirm_message = "\', escape=False)\nresponse.write(T(\'Are you sure you want to delete this object?\'))\nresponse.write(\'";\\n    var w2p_ajax_date_format = "\', escape=False)\nresponse.write(T(\'%Y-%m-%d\'))\nresponse.write(\'";\\n    var w2p_ajax_datetime_format = "\', escape=False)\nresponse.write(T(\'%Y-%m-%d %H:%M:%S\'))\nresponse.write(\'";\\n    var ajax_error_500 = \\\'\', escape=False)\nresponse.write(XML(T(\'An error occured, please %s the page\') % A(T(\'reload\'), _href=URL(args=request.args, vars=request.vars))))\nresponse.write("\'\\n    //--></script>\\n", escape=False)\nresponse.files.insert(0,URL(\'static\',\'js/jquery.js\'))\nresponse.files.insert(1,URL(\'static\',\'css/calendar.css\'))\nresponse.files.insert(2,URL(\'static\',\'js/calendar.js\'))\nresponse.files.insert(3,URL(\'static\',\'js/web2py.js\'))\nresponse.include_meta()\nresponse.include_files()\nresponse.write(\'\\n\', escape=False)\nresponse.write(\'\\n\\n  \', escape=False)\n# using sidebars need to know what sidebar you want to use\nleft_sidebar_enabled = globals().get(\'left_sidebar_enabled\',False)\nright_sidebar_enabled = globals().get(\'right_sidebar_enabled\',False)\nmiddle_columns = {0:\'span12\',1:\'span9\',2:\'span6\'}[\n(left_sidebar_enabled and 1 or 0)+(right_sidebar_enabled and 1 or 0)]\nresponse.write(\'\\n    \', escape=False)\nleft_sidebar_enabled = False\nresponse.write(\'\\n\\n  <!-- uncomment here to load jquery-ui\\n       <link rel="stylesheet" href="http://ajax.googleapis.com/ajax/libs/jqueryui/1.8.16/themes/base/jquery-ui.css" type="text/css" media="all" />\\n       <script src="http://ajax.googleapis.com/ajax/libs/jqueryui/1.8.16/jquery-ui.min.js" type="text/javascript"></script>\\n       uncomment to load jquery-ui //-->\\n  <noscript><link href="\', escape=False)\nresponse.write(URL(\'static\', \'css/web2py_bootstrap_nojs.css\'))\nresponse.write(\'" rel="stylesheet" type="text/css" /></noscript>\\n  \', escape=False)\nresponse.write(\'\\n</head>\\n\\n<body>\\n\\n  <!-- Navbar ================================================== -->\\n  <!-- Navbar ================================================== -->\\n  <div class="navbar navbar-inverse">\\n    <div class="flash">\', escape=False)\nresponse.write(response.flash or \'\')\nresponse.write(\'</div>\\n    <div class="navbar-inner-new">\\n      <div class="container">\\n        \', escape=False)\nis_mobile=request.user_agent().is_mobile\nresponse.write(\'\\n        <!-- the next tag is necessary for bootstrap menus, do not remove -->\\n        <button type="button" class="btn btn-navbar" data-toggle="collapse" data-target=".nav-collapse" style="\', escape=False)\nresponse.write(\'display:none;\' if not is_mobile else \'\')\nresponse.write(\'">\\n          <span class="icon-bar"></span>\\n          <span class="icon-bar"></span>\\n          <span class="icon-bar"></span>\\n        </button>\\n       <!-- \', escape=False)\nresponse.write(response.logo)\nresponse.write(\'-->\\n          <!-- bug of not update db when login second time with fb-->\\n          \', escape=False)\ntemp =  db(db.auth_user).select().first()\nresponse.write(\'\\n          \', escape=False)\npass\nresponse.write(\'\\n\\n        <ul id="navbar" class="nav pull-right">\\n            \', escape=False)\nif auth.user:\n    response.write(\'\\n            \', escape=False)\n    img_path =\' https://graph.facebook.com/\' + auth.user.username + \'/picture\'\n    response.write(\'\\n            <li>\\n                <!--<a href=\', escape=False)\n    response.write(URL( \'welcome/default/user_profile\'))\n    response.write(\'>-->\\n                <a id ="user_profile" href=\\\'http://localhost:8002/welcome/default/user_profile\\\' onclick="location.href=this.href+\\\'?user_id=\\\'+\', escape=False)\n    response.write(auth.user.id)\n    response.write(\'; return false;">\\n                <img border="0" src=\', escape=False)\n    response.write(img_path)\n    response.write(\' alt="Pulpit rock" width="40" height="40">\\n                </a>\\n            </li>\\n            \', escape=False)\n    pass\nresponse.write(\'\\n            \', escape=False)\nresponse.write(\'auth\' in globals() and auth.navbar(mode="dropdown") or \'\')\nresponse.write(\'\\n        </ul>\\n         <div class = "nav">\\n             <ul class = "nav">\\n        <li class="web2py-menu-first"><a  id = "logo_site" href="/welcome/default/question_list">Chuot nhat </a></li>\\n      <!--  <li class="web2py-menu-first"><input type="text" name="" style="height:30px;font-size:16pt;size=80; width: 500px"  value = "search " ></li>-->\\n                <li class="web2py-menu-first"><a id="kaka">\\n                    <style type="text/css">\\n                            td.gsc-search-button { display: none !important; }\\n                            #gsc-i-id1{\\n                                height:2em !important;\\n                            }\\n                        .gsc-input-box{\\n                         height: 38px;\\n                         border: 0px solid #D9D9D9;\\n                        }\\n                        input.gsc-input, .gsc-input-box, .gsc-input-box-hover, .gsc-input-box-focus {\\n                        border:2px red !important;\\n                        }\\n                        .cse input.gsc-input, input.gsc-input {background-image:none !important;\\n                        }\\n                    </style>\\n<script>\\n  (function() {\\n    var cx = \\\'000962600827879314668:shbqhmi-59y\\\';\\n    var gcse = document.createElement(\\\'script\\\');\\n    gcse.type = \\\'text/javascript\\\';\\n    gcse.async = true;\\n    gcse.src = (document.location.protocol == \\\'https:\\\' ? \\\'https:\\\' : \\\'http:\\\') +\\n        \\\'//www.google.com/cse/cse.js?cx=\\\' + cx;\\n    var s = document.getElementsByTagName(\\\'script\\\')[0];\\n    s.parentNode.insertBefore(gcse, s);\\n  })();\\n\\n</script>\\n<gcse:searchbox-only resultsUrl="http://localhost:8000/welcome/default/test_jquery"></gcse:searchbox-only>\\n\\n                       </a>\\n                </li>\\n               <li class="web2py-menu-first">   <a id = "post_button" href=\', escape=False)\nresponse.write(URL(\'post\'))\nresponse.write(\' rel="nofollow"> Post</a></li>\\n                 </ul>\\n             </div>\\n          <!--\\n        <div class="\', escape=False)\nresponse.write(\'nav-collapse\' if is_mobile else \'nav\')\nresponse.write(\'">\\n          \', escape=False)\nif response.menu:\n    response.write(\'\\n          \', escape=False)\n    response.write(MENU(response.menu, _class=\'mobile-menu nav\' if is_mobile else \'nav\',mobile=is_mobile,li_class=\'dropdown\',ul_class=\'dropdown-menu\'))\n    response.write(\'\\n          \', escape=False)\n    pass\nresponse.write(\'\\n        </div><!--/.nav-collapse -->\\n      </div>\\n    </div>\\n  </div><!--/top navbar -->\\n\\n  <div class="container">\\n\\n    <!-- Masthead ================================================== -->\\n    <!--\\n    <header class="mastheader row" id="header">\\n        <div class="span12">\\n            <div class="page-header">\\n                <h1>\\n                </h1>\\n            </div>\\n        </div>\\n    </header>\\n    -->\\n\\n    <section id="main" class="main row">\\n\\n        \', escape=False)\nif left_sidebar_enabled:\n    response.write(\'\\n        <div class="span3 left-sidebar">\\n            \', escape=False)\n    response.write(\'\\n            \', escape=False)\n    response.write(\'\\n        </div>\\n        \', escape=False)\n    pass\nresponse.write(\'\\n\\n        <div class="\', escape=False)\nresponse.write(middle_columns)\nresponse.write(\'">\\n            \', escape=False)\nresponse.write(\'\\n            \', escape=False)\nresponse.write(\'\\n\\n\\n\\n<div class="article_container">\\n  <div>\\n\\n\\n            <table class="article_tag">\\n            <tr>\\n                \', escape=False)\nquestion_tag_list = db(db.question_tag_tbl.question_info == item.id).select()\nresponse.write(\'\\n                \', escape=False)\nfor tag_unit in question_tag_list:\n    response.write(\'\\n               <td>\\n                   \', escape=False)\n    tag_record = db(db.tag_tbl.id == tag_unit.tag_info).select().first()\n    response.write(\'\\n                   \', escape=False)\n    response.write(tag_record.name)\n    response.write(\'\\n\\n               </td>\\n                \', escape=False)\n    pass\nresponse.write(\'\\n           </tr>\\n         </table>\\n         <table  class="article_header">\\n           <tr >\\n               <td>\\n                   \', escape=False)\nresponse.write(A(item.question_info,_href=URL(r=request,f=\'article\',args=[item.id])))\nresponse.write(\'\\n               </td>\\n           </tr>\\n           </table>\\n           <table class ="article_introduction">\\n          <tr >\\n              <td>\\n                \', escape=False)\nresponse.write(XML(item.question_detail_info))\nresponse.write(\'\\n              </td>\\n          </tr>\\n          </table>\\n          <table class="article_popularity_info">\\n            <tr>\\n              <td >\\n                  \', escape=False)\nresponse.write(len(comment_list))\nresponse.write(\' quan diem  \', escape=False)\nresponse.write(len(like_list))\nresponse.write(\' quan tam\\n                 </td>\\n                <td>\\n                    \', escape=False)\nresponse.write(A("edit",_id =\'edit_button\',_href=URL(r=request,f=\'edit_question\',args=[item.id])))\nresponse.write(\'\\n                </td>\\n                <td>\\n                    \', escape=False)\nresponse.write(A("delete",_id=\'delete_button\', _href=URL(r=request,f=\'delete_question\',args=[item.id])))\nresponse.write(\'\\n                </td>\\n              <td>\\n             <!-- <img border="0" src=https://fbcdn-profile-a.akamaihd.net/hprofile-ak-prn2/t1.0-1/p50x50/524680_10151914256443389_1087551412_n.jpg alt="Pulpit rock" width="150" height="150"> -->\\n                  \', escape=False)\nif user_info:\n    response.write(\'\\n                  \', escape=False)\n    img_path =\' https://graph.facebook.com/\' + user_info.username + \'/picture\'\n    response.write(\'\\n                  <!--\\n                  <img border="0" src=\', escape=False)\n    response.write(img_path)\n    response.write(\' alt="Pulpit rock" width="50" height="50">\\n                  -->\\n                  \', escape=False)\n    pass\nresponse.write(\'\\n                  \', escape=False)\nresponse.write(\'  by   \' + user_info.first_name)\nresponse.write(\'\\n              </td>\\n\\n          </tr>\\n\\n          </table>\\n\\n\\n   </div>\\n  <div id="mainContent">\\n\\n\\n\\n     <input id="inputCommentButton" name="question_id" value = "tra loi">\\n\\n\\n    <form id="realEditor"  action="post_comment" method="post">\\n        <p>\\n           <input type="hidden" name="question_id" value = \', escape=False)\nresponse.write(item.id)\nresponse.write(\'>\\n        </p>\\n        <!--\\n        <p>\\n            <textarea class="ckeditor" cols="80" id="editor1" name="editor1" rows="10">\\n\\n            </textarea>\\n        </p>\\n        -->\\n\\n                <textarea  id="editor1" name="answer_info" rows="10" >\\n\\n            </textarea>\\n\\n        <p>\\n            <input type="submit" value="Submit">\\n        </p>\\n    </form>\\n  </div>\\n   <div >\\n       <table class="article_comment_container">\\n        \', escape=False)\nfor comment in comment_list:\n    response.write(\'\\n      <tr>\\n        <td>\\n            <table class="user_comment" >\\n            <tr class="user_info">\\n                 <td>\\n                \', escape=False)\n    user_info = db(db.auth_user.id == comment.author_info).select().first()\n    response.write(\'\\n                \', escape=False)\n    response.write(user_info.first_name)\n    response.write(\'\\n               </td>\\n           </tr>\\n            <tr class="comment_info">\\n                 <td>\\n                \', escape=False)\n    response.write(XML(comment.answer_info))\n    response.write(\'\\n               </td>\\n           </tr>\\n          <tr class="article_popularity_info">\\n              <td >\\n                  \', escape=False)\n    like_record = db((db.answer_like_tbl.answer_id == comment.id)&(db.answer_like_tbl.user_info == audience_id )).select()\n    response.write(\'\\n                  \', escape=False)\n    if len(like_record):\n        response.write(\'\\n                  <button id ="un_like_button" value=\', escape=False)\n        response.write(item.id)\n        response.write(\' name="status"> unlike</button>\\n                  \', escape=False)\n    else:\n        response.write(\'\\n                  <button id ="like_button" value=\', escape=False)\n        response.write(item.id)\n        response.write(\' name="status"> like</button>\\n                  \', escape=False)\n        pass\n    response.write(\'\\n                 </td>\\n              <td>bao cao</td>\\n\\n          </tr>\\n            </table>\\n        </td>\\n      </tr>\\n      \', escape=False)\n    pass\nresponse.write(\'\\n    </table>\\n   </div>\\n\\n\\n</div>\\n\', escape=False)\nresponse.write("\\n\\n\\n\\n<script>\\n$(\'#realEditor\').hide();\\n$( \'#inputCommentButton\' ).click(function() {\\n  $( this ).hide( );\\n  <!--$( this ).slideUp();-->\\n    $( \'#realEditor\' ).show(  );\\n\\n});\\n</script>", escape=False)\nresponse.write(\'\\n            \', escape=False)\nresponse.write(\'\\n        </div>\\n\\n\\n        \', escape=False)\nif right_sidebar_enabled:\n    response.write(\'\\n\\n        <div class="span3">\\n            \', escape=False)\n    response.write(\'\\n        <ul id="right_bar_question_list" >\\n            \', escape=False)\n    for item in related_question_list:\n        response.write(\'\\n            <li>\\n                \', escape=False)\n        response.write(A(XML(item.question_info),_href=URL(r=request,f=\'question\',args=[item.id])))\n        response.write(\'\\n            </li>\\n            \', escape=False)\n        pass\n    response.write(\'\\n        </ul>\\n\', escape=False)\n    response.write(\'\\n        </div>\\n        \', escape=False)\n    pass\nresponse.write(\'\\n\\n    </section><!--/main-->\\n\\n    <!-- Footer ================================================== -->\\n    <!--\\n    <div class="row">\\n        <footer class="footer span12" id="footer">\\n            <div class="footer-content">\\n                \', escape=False)\nresponse.write(\' \\n                <div class="copyright pull-left">\', escape=False)\nresponse.write(T(\'Copyright\'))\nresponse.write(\' &#169; \', escape=False)\nresponse.write(request.now.year)\nresponse.write(\'</div>\\n                <div id="poweredBy" class="pull-right">\\n                    \', escape=False)\nresponse.write(T(\'Powered by\'))\nresponse.write(\'\\n                    <a href="http://www.web2py.com/">web2py</a>\\n                </div>\\n                \', escape=False)\nresponse.write(\'\\n            </div>\\n        </footer>\\n    </div>\\n    -->\\n\\n  </div> <!-- /container -->\\n\\n  <!-- The javascript =============================================\\n       (Placed at the end of the document so the pages load faster) -->\\n  <script src="\', escape=False)\nresponse.write(URL(\'static\',\'js/bootstrap.min.js\'))\nresponse.write(\'"></script>\\n  <script src="\', escape=False)\nresponse.write(URL(\'static\',\'js/web2py_bootstrap.js\'))\nresponse.write(\'"></script>\\n  <!--[if lt IE 7 ]>\\n      <script src="\', escape=False)\nresponse.write(URL(\'static\',\'js/dd_belatedpng.js\'))\nresponse.write(\'"></script>\\n      <script> DD_belatedPNG.fix(\\\'img, .png_bg\\\'); //fix any <img> or .png_bg background-images </script>\\n      <![endif]-->\\n  \\n  \', escape=False)\nif response.google_analytics_id:\n    response.write(\'\\n  <script src="\', escape=False)\n    response.write(URL(\'static\',\'js/analytics.min.js\'))\n    response.write(\'"></script>\\n  <script type="text/javascript">\\n  analytics.initialize({\\n    \\\'Google Analytics\\\':{trackingId:\\\'\', escape=False)\n    response.write(response.google_analytics_id)\n    response.write("\'} \\n  });</script>\\n  ", escape=False)\n    pass\nresponse.write(\'\\n  <script src="\', escape=False)\nresponse.write(URL(\'static\',\'js/share.js\',vars=dict(static=URL(\'static\',\'images\'))))\nresponse.write(\'"></script>\\n</body>\\n</html>\\n\\n\', escape=False)'
p7
sS'snapshot'
p8
(dp9
sS'traceback'
p10
S'Traceback (most recent call last):\n  File "/Users/mac/Documents/shareknowledge/gluon/restricted.py", line 217, in restricted\n    exec ccode in environment\n  File "/Users/mac/Documents/shareknowledge/applications/welcome/views/default/question.html", line 153, in <module>\nNameError: name \'audience_id\' is not defined\n'
p11
s.