(dp1
S'output'
p2
S"<type 'exceptions.AttributeError'> 'Set' object has no attribute 'update_record'"
p3
sS'layer'
p4
S'/Users/huyheo/Documents/huy/blogging/web2py/applications/welcome/controllers/default.py'
p5
sS'code'
p6
S'# -*- coding: utf-8 -*-\n# this file is released under public domain and you can use without limitations\n\n#########################################################################\n## This is a samples controller\n## - index is the default action of any application\n## - user is required for authentication and authorization\n## - download is for downloading files uploaded in the db (does streaming)\n## - call exposes all registered services (none by default)\n#########################################################################\n\nimport json\nimport logging\n\nlog = logging.getLogger("h")\nlog.setLevel(logging.DEBUG)\n\nfrom ConstantDefinition import *\n\ndef user():\n    return dict(form = auth())\n\ndef index():\n    """\n    example action using the internationalization operator T and flash\n    rendered by views/default/index.html or views/generic.html\n\n    if you need a simple wiki simple replace the two lines below with:\n    return auth.wiki()\n    """\n    response.flash = T("Welcome to web2py!")\n    return dict(message=T(\'Hello World\'))\n\n\ndef blog():\n    """\n    Display blog by id\n    """\n    log.info("request.vars = %s", request.args[0])\n    id_info = request.args[0]\n    try:\n        blog_item = db(db.blog.id == int(id_info)).select()[0]\n    except:\n        log.error(\'cant query a blog from db\')\n        blog_item = None\n\n    return dict(item = blog_item)\n\ndef edit_blog():\n    item_info = blog()\n    item = item_info["item"]\n    if request.vars.editor1:\n        db(db.blog.id == int(request.args[0])).update_record(story = request.vars.editor1)\n\n\n\n    return dict(item = item)\n        \n\n\ndef blog_list():\n    try:\n        items = db(db.blog).select()\n        return dict(items = items)\n    except:\n        log.error(\'cant query data from db\')\n        return dict()\n\n\n@auth.requires_login()\ndef post():\n    log.info("post")\n    log.info(" request.vars.editor1 = %s", request.vars.editor1)\n    log.info("session.user = %s", auth.user)\n    test = request.vars.editor1\n    try:\n        id = db.blog.insert(story = request.vars.editor1,\n                            writer = auth.user.id)\n        log.info(\'successfully create a blog\')\n    except:\n        log.error(\'cant create blog\')\n    return dict()\n\nresponse._vars=response._caller(edit_blog)\n'
p7
sS'snapshot'
p8
(dp9
S'exception'
p10
(dp11
S'__hash__'
p12
S"<method-wrapper '__hash__' of exceptions.AttributeError object>"
p13
sS'__setattr__'
p14
S"<method-wrapper '__setattr__' of exceptions.AttributeError object>"
p15
sS'__reduce_ex__'
p16
S'<built-in method __reduce_ex__ of exceptions.AttributeError object>'
p17
sS'__getslice__'
p18
S"<method-wrapper '__getslice__' of exceptions.AttributeError object>"
p19
sS'__getitem__'
p20
S"<method-wrapper '__getitem__' of exceptions.AttributeError object>"
p21
sS'__setstate__'
p22
S'<built-in method __setstate__ of exceptions.AttributeError object>'
p23
sS'args'
p24
S'("\'Set\' object has no attribute \'update_record\'",)'
p25
sS'__reduce__'
p26
S'<built-in method __reduce__ of exceptions.AttributeError object>'
p27
sS'__str__'
p28
S"<method-wrapper '__str__' of exceptions.AttributeError object>"
p29
sS'__format__'
p30
S'<built-in method __format__ of exceptions.AttributeError object>'
p31
sS'__getattribute__'
p32
S"<method-wrapper '__getattribute__' of exceptions.AttributeError object>"
p33
sS'__class__'
p34
S"<type 'exceptions.AttributeError'>"
p35
sS'__unicode__'
p36
S'<built-in method __unicode__ of exceptions.AttributeError object>'
p37
sS'__delattr__'
p38
S"<method-wrapper '__delattr__' of exceptions.AttributeError object>"
p39
sS'__subclasshook__'
p40
S'<built-in method __subclasshook__ of type object>'
p41
sS'__repr__'
p42
S"<method-wrapper '__repr__' of exceptions.AttributeError object>"
p43
sS'__dict__'
p44
S'{}'
p45
sS'__sizeof__'
p46
S'<built-in method __sizeof__ of exceptions.AttributeError object>'
p47
sS'__doc__'
p48
S"'Attribute not found.'"
p49
sS'__init__'
p50
S"<method-wrapper '__init__' of exceptions.AttributeError object>"
p51
sS'__new__'
p52
S'<built-in method __new__ of type object>'
p53
ssS'evalue'
p54
S"'Set' object has no attribute 'update_record'"
p55
sS'request'
p56
cgluon.html
XML_unpickle
p57
(S's\x96~\x00\x00<div><table><tr><td style="font-weight:bold;vertical-align:top">ajax</td><td valign="top">:</td><td><div>False</div></td></tr><tr><td style="font-weight:bold;vertical-align:top">application</td><td valign="top">:</td><td><div>welcome</div></td></tr><tr><td style="font-weight:bold;vertical-align:top">args</td><td valign="top">:</td><td><div><table><tr><td><div>5</div></td></tr></table></div></td></tr><tr><td style="font-weight:bold;vertical-align:top">body</td><td valign="top">:</td><td><div>&lt;open file &#x27;&lt;fdopen&gt;&#x27;, mode &#x27;w+b&#x27; at 0x111130150&gt;</div></td></tr><tr><td style="font-weight:bold;vertical-align:top">cid</td><td valign="top">:</td><td><div>None</div></td></tr><tr><td style="font-weight:bold;vertical-align:top">client</td><td valign="top">:</td><td><div>127.0.0.1</div></td></tr><tr><td style="font-weight:bold;vertical-align:top">controller</td><td valign="top">:</td><td><div>default</div></td></tr><tr><td style="font-weight:bold;vertical-align:top">cookies</td><td valign="top">:</td><td><div><table><tr><td style="font-weight:bold;vertical-align:top">session_id_admin</td><td valign="top">:</td><td><div>127.0.0.1-8ed52a34-ad68-4751-b8d4-e0e917f1c6cc<table><tr><td style="font-weight:bold;vertical-align:top">comment</td><td valign="top">:</td><td><div></div></td></tr><tr><td style="font-weight:bold;vertical-align:top">domain</td><td valign="top">:</td><td><div></div></td></tr><tr><td style="font-weight:bold;vertical-align:top">expires</td><td valign="top">:</td><td><div></div></td></tr><tr><td style="font-weight:bold;vertical-align:top">httponly</td><td valign="top">:</td><td><div></div></td></tr><tr><td style="font-weight:bold;vertical-align:top">max-age</td><td valign="top">:</td><td><div></div></td></tr><tr><td style="font-weight:bold;vertical-align:top">path</td><td valign="top">:</td><td><div></div></td></tr><tr><td style="font-weight:bold;vertical-align:top">secure</td><td valign="top">:</td><td><div></div></td></tr><tr><td style="font-weight:bold;vertical-align:top">version</td><td valign="top">:</td><td><div></div></td></tr></table></div></td></tr><tr><td style="font-weight:bold;vertical-align:top">session_id_welcome</td><td valign="top">:</td><td><div>127.0.0.1-79870310-6908-4bc7-9eab-ce9785e5a6d0<table><tr><td style="font-weight:bold;vertical-align:top">comment</td><td valign="top">:</td><td><div></div></td></tr><tr><td style="font-weight:bold;vertical-align:top">domain</td><td valign="top">:</td><td><div></div></td></tr><tr><td style="font-weight:bold;vertical-align:top">expires</td><td valign="top">:</td><td><div></div></td></tr><tr><td style="font-weight:bold;vertical-align:top">httponly</td><td valign="top">:</td><td><div></div></td></tr><tr><td style="font-weight:bold;vertical-align:top">max-age</td><td valign="top">:</td><td><div></div></td></tr><tr><td style="font-weight:bold;vertical-align:top">path</td><td valign="top">:</td><td><div></div></td></tr><tr><td style="font-weight:bold;vertical-align:top">secure</td><td valign="top">:</td><td><div></div></td></tr><tr><td style="font-weight:bold;vertical-align:top">version</td><td valign="top">:</td><td><div></div></td></tr></table></div></td></tr></table></div></td></tr><tr><td style="font-weight:bold;vertical-align:top">env</td><td valign="top">:</td><td><div><table><tr><td style="font-weight:bold;vertical-align:top">app_folders</td><td valign="top">:</td><td><div>set([&#x27;/Users/huyheo/Documents/huy/blogging/web2py/applications/admin/&#x27;, &#x27;/Users/huyheo/Documents/huy/blogging/web2py/applications/welcome/&#x27;])</div></td></tr><tr><td style="font-weight:bold;vertical-align:top">applications_parent</td><td valign="top">:</td><td><div>/Users/huyheo/Documents/huy/blogging/web2py</div></td></tr><tr><td style="font-weight:bold;vertical-align:top">cmd_args</td><td valign="top">:</td><td><div><table></table></div></td></tr><tr><td style="font-weight:bold;vertical-align:top">cmd_options</td><td valign="top">:</td><td><div>&lt;Values at 0x108ed5ef0: {&#x27;verbose&#x27;: False, &#x27;ip&#x27;: &#x27;127.0.0.1&#x27;, &#x27;with_scheduler&#x27;: False, &#x27;ips&#x27;: [&#x27;124.46.127.216&#x27;, &#x27;fe80::aa20:66ff:fe54:c1c7%en0&#x27;], &#x27;shutdown_timeout&#x27;: 5, &#x27;taskbar&#x27;: False, &#x27;with_coverage&#x27;: False, &#x27;port&#x27;: 8000, &#x27;maxthreads&#x27;: None, &#x27;softcron&#x27;: False, &#x27;server_name&#x27;: &#x27;vkxs-Mac-mini.local&#x27;, &#x27;bpython&#x27;: False, &#x27;nogui&#x27;: False, &#x27;pid_filename&#x27;: &#x27;httpserver.pid&#x27;, &#x27;extcron&#x27;: False, &#x27;runcron&#x27;: False, &#x27;run_system_tests&#x27;: False, &#x27;test&#x27;: None, &#x27;folder&#x27;: &#x27;/Users/huyheo/Documents/huy/blogging/web2py&#x27;, &#x27;config&#x27;: &#x27;&#x27;, &#x27;minthreads&#x27;: None, &#x27;winservice&#x27;: &#x27;&#x27;, &#x27;shell&#x27;: None, &#x27;run&#x27;: &#x27;&#x27;, &#x27;log_filename&#x27;: &#x27;httpserver.log&#x27;, &#x27;debuglevel&#x27;: 30, &#x27;args&#x27;: [&#x27;&#x27;], &#x27;socket_timeout&#x27;: 5, &#x27;ssl_ca_certificate&#x27;: None, &#x27;scheduler&#x27;: None, &#x27;profiler_filename&#x27;: None, &#x27;ssl_private_key&#x27;: &#x27;&#x27;, &#x27;scheduler_groups&#x27;: None, &#x27;password&#x27;: &#x27;&lt;ask&gt;&#x27;, &#x27;request_queue_size&#x27;: 5, &#x27;ssl_certificate&#x27;: &#x27;&#x27;, &#x27;cronjob&#x27;: False, &#x27;numthreads&#x27;: None, &#x27;quiet&#x27;: False, &#x27;interfaces&#x27;: None, &#x27;import_models&#x27;: False, &#x27;timeout&#x27;: 10, &#x27;plain&#x27;: False, &#x27;nobanner&#x27;: False}&gt;</div></td></tr><tr><td style="font-weight:bold;vertical-align:top">content_length</td><td valign="top">:</td><td><div>6507</div></td></tr><tr><td style="font-weight:bold;vertical-align:top">content_type</td><td valign="top">:</td><td><div>application/x-www-form-urlencoded</div></td></tr><tr><td style="font-weight:bold;vertical-align:top">db_sessions</td><td valign="top">:</td><td><div>set([])</div></td></tr><tr><td style="font-weight:bold;vertical-align:top">debugging</td><td valign="top">:</td><td><div>False</div></td></tr><tr><td style="font-weight:bold;vertical-align:top">gluon_parent</td><td valign="top">:</td><td><div>/Users/huyheo/Documents/huy/blogging/web2py</div></td></tr><tr><td style="font-weight:bold;vertical-align:top">http_accept</td><td valign="top">:</td><td><div>text/html,application/xhtml+xml,application/xml;q=0.9,*/*;q=0.8</div></td></tr><tr><td style="font-weight:bold;vertical-align:top">http_accept_encoding</td><td valign="top">:</td><td><div>gzip, deflate</div></td></tr><tr><td style="font-weight:bold;vertical-align:top">http_accept_language</td><td valign="top">:</td><td><div>vi-vn</div></td></tr><tr><td style="font-weight:bold;vertical-align:top">http_connection</td><td valign="top">:</td><td><div>keep-alive</div></td></tr><tr><td style="font-weight:bold;vertical-align:top">http_content_length</td><td valign="top">:</td><td><div>6507</div></td></tr><tr><td style="font-weight:bold;vertical-align:top">http_content_type</td><td valign="top">:</td><td><div>application/x-www-form-urlencoded</div></td></tr><tr><td style="font-weight:bold;vertical-align:top">http_cookie</td><td valign="top">:</td><td><div>session_id_welcome=127.0.0.1-79870310-6908-4bc7-9eab-ce9785e5a6d0; session_id_admin=127.0.0.1-8ed52a34-ad68-4751-b8d4-e0e917f1c6cc</div></td></tr><tr><td style="font-weight:bold;vertical-align:top">http_host</td><td valign="top">:</td><td><div>127.0.0.1:8000</div></td></tr><tr><td style="font-weight:bold;vertical-align:top">http_origin</td><td valign="top">:</td><td><div>http://127.0.0.1:8000</div></td></tr><tr><td style="font-weight:bold;vertical-align:top">http_referer</td><td valign="top">:</td><td><div>http://127.0.0.1:8000/welcome/default/edit_blog/5</div></td></tr><tr><td style="font-weight:bold;vertical-align:top">http_user_agent</td><td valign="top">:</td><td><div>Mozilla/5.0 (Macintosh; Intel Mac OS X 10_8_4) AppleWebKit/536.30.1 (KHTML, like Gecko) Version/6.0.5 Safari/536.30.1</div></td></tr><tr><td style="font-weight:bold;vertical-align:top">is_jython</td><td valign="top">:</td><td><div>False</div></td></tr><tr><td style="font-weight:bold;vertical-align:top">is_pypy</td><td valign="top">:</td><td><div>False</div></td></tr><tr><td style="font-weight:bold;vertical-align:top">local_hosts</td><td valign="top">:</td><td><div><table><tr><td><div>fe80::aa20:66ff:fe54:c1c7%en0</div></td></tr><tr><td><div>124.46.127.216</div></td></tr><tr><td><div>::ffff:127.0.0.1</div></td></tr><tr><td><div>::1</div></td></tr><tr><td><div>vkxs-Mac-mini.local</div></td></tr><tr><td><div>127.0.0.1</div></td></tr></table></div></td></tr><tr><td style="font-weight:bold;vertical-align:top">path_info</td><td valign="top">:</td><td><div>/welcome/default/edit_blog/5</div></td></tr><tr><td style="font-weight:bold;vertical-align:top">query_string</td><td valign="top">:</td><td><div></div></td></tr><tr><td style="font-weight:bold;vertical-align:top">remote_addr</td><td valign="top">:</td><td><div>127.0.0.1</div></td></tr><tr><td style="font-weight:bold;vertical-align:top">remote_port</td><td valign="top">:</td><td><div>50843</div></td></tr><tr><td style="font-weight:bold;vertical-align:top">request_method</td><td valign="top">:</td><td><div>POST</div></td></tr><tr><td style="font-weight:bold;vertical-align:top">request_uri</td><td valign="top">:</td><td><div>/welcome/default/edit_blog/5</div></td></tr><tr><td style="font-weight:bold;vertical-align:top">script_name</td><td valign="top">:</td><td><div></div></td></tr><tr><td style="font-weight:bold;vertical-align:top">server_name</td><td valign="top">:</td><td><div>vkxs-Mac-mini.local</div></td></tr><tr><td style="font-weight:bold;vertical-align:top">server_port</td><td valign="top">:</td><td><div>8000</div></td></tr><tr><td style="font-weight:bold;vertical-align:top">server_protocol</td><td valign="top">:</td><td><div>HTTP/1.1</div></td></tr><tr><td style="font-weight:bold;vertical-align:top">server_software</td><td valign="top">:</td><td><div>Rocket 1.2.6</div></td></tr><tr><td style="font-weight:bold;vertical-align:top">web2py_path</td><td valign="top">:</td><td><div>/Users/huyheo/Documents/huy/blogging/web2py</div></td></tr><tr><td style="font-weight:bold;vertical-align:top">web2py_version</td><td valign="top">:</td><td><div>2.5.1-stable+timestamp.2013.06.16.12.00.29</div></td></tr><tr><td style="font-weight:bold;vertical-align:top">wsgi_errors</td><td valign="top">:</td><td><div>&lt;open file &#x27;&lt;stderr&gt;&#x27;, mode &#x27;w&#x27; at 0x1084da270&gt;</div></td></tr><tr><td style="font-weight:bold;vertical-align:top">wsgi_file_wrapper</td><td valign="top">:</td><td><div>&lt;class wsgiref.util.FileWrapper at 0x108d0fce8&gt;</div></td></tr><tr><td style="font-weight:bold;vertical-align:top">wsgi_input</td><td valign="top">:</td><td><div>&lt;socket._fileobject object at 0x111306850&gt;</div></td></tr><tr><td style="font-weight:bold;vertical-align:top">wsgi_multiprocess</td><td valign="top">:</td><td><div>False</div></td></tr><tr><td style="font-weight:bold;vertical-align:top">wsgi_multithread</td><td valign="top">:</td><td><div>True</div></td></tr><tr><td style="font-weight:bold;vertical-align:top">wsgi_run_once</td><td valign="top">:</td><td><div>False</div></td></tr><tr><td style="font-weight:bold;vertical-align:top">wsgi_url_scheme</td><td valign="top">:</td><td><div>http</div></td></tr><tr><td style="font-weight:bold;vertical-align:top">wsgi_version</td><td valign="top">:</td><td><div><table><tr><td><div>1</div></td></tr><tr><td><div>0</div></td></tr></table></div></td></tr></table></div></td></tr><tr><td style="font-weight:bold;vertical-align:top">extension</td><td valign="top">:</td><td><div>html</div></td></tr><tr><td style="font-weight:bold;vertical-align:top">folder</td><td valign="top">:</td><td><div>/Users/huyheo/Documents/huy/blogging/web2py/applications/welcome/</div></td></tr><tr><td style="font-weight:bold;vertical-align:top">function</td><td valign="top">:</td><td><div>edit_blog</div></td></tr><tr><td style="font-weight:bold;vertical-align:top">get_vars</td><td valign="top">:</td><td><div><table></table></div></td></tr><tr><td style="font-weight:bold;vertical-align:top">global_settings</td><td valign="top">:</td><td><div><table><tr><td style="font-weight:bold;vertical-align:top">app_folders</td><td valign="top">:</td><td><div>set([&#x27;/Users/huyheo/Documents/huy/blogging/web2py/applications/admin/&#x27;, &#x27;/Users/huyheo/Documents/huy/blogging/web2py/applications/welcome/&#x27;])</div></td></tr><tr><td style="font-weight:bold;vertical-align:top">applications_parent</td><td valign="top">:</td><td><div>/Users/huyheo/Documents/huy/blogging/web2py</div></td></tr><tr><td style="font-weight:bold;vertical-align:top">cmd_args</td><td valign="top">:</td><td><div><table></table></div></td></tr><tr><td style="font-weight:bold;vertical-align:top">cmd_options</td><td valign="top">:</td><td><div>&lt;Values at 0x108ed5ef0: {&#x27;verbose&#x27;: False, &#x27;ip&#x27;: &#x27;127.0.0.1&#x27;, &#x27;with_scheduler&#x27;: False, &#x27;ips&#x27;: [&#x27;124.46.127.216&#x27;, &#x27;fe80::aa20:66ff:fe54:c1c7%en0&#x27;], &#x27;shutdown_timeout&#x27;: 5, &#x27;taskbar&#x27;: False, &#x27;with_coverage&#x27;: False, &#x27;port&#x27;: 8000, &#x27;maxthreads&#x27;: None, &#x27;softcron&#x27;: False, &#x27;server_name&#x27;: &#x27;vkxs-Mac-mini.local&#x27;, &#x27;bpython&#x27;: False, &#x27;nogui&#x27;: False, &#x27;pid_filename&#x27;: &#x27;httpserver.pid&#x27;, &#x27;extcron&#x27;: False, &#x27;runcron&#x27;: False, &#x27;run_system_tests&#x27;: False, &#x27;test&#x27;: None, &#x27;folder&#x27;: &#x27;/Users/huyheo/Documents/huy/blogging/web2py&#x27;, &#x27;config&#x27;: &#x27;&#x27;, &#x27;minthreads&#x27;: None, &#x27;winservice&#x27;: &#x27;&#x27;, &#x27;shell&#x27;: None, &#x27;run&#x27;: &#x27;&#x27;, &#x27;log_filename&#x27;: &#x27;httpserver.log&#x27;, &#x27;debuglevel&#x27;: 30, &#x27;args&#x27;: [&#x27;&#x27;], &#x27;socket_timeout&#x27;: 5, &#x27;ssl_ca_certificate&#x27;: None, &#x27;scheduler&#x27;: None, &#x27;profiler_filename&#x27;: None, &#x27;ssl_private_key&#x27;: &#x27;&#x27;, &#x27;scheduler_groups&#x27;: None, &#x27;password&#x27;: &#x27;&lt;ask&gt;&#x27;, &#x27;request_queue_size&#x27;: 5, &#x27;ssl_certificate&#x27;: &#x27;&#x27;, &#x27;cronjob&#x27;: False, &#x27;numthreads&#x27;: None, &#x27;quiet&#x27;: False, &#x27;interfaces&#x27;: None, &#x27;import_models&#x27;: False, &#x27;timeout&#x27;: 10, &#x27;plain&#x27;: False, &#x27;nobanner&#x27;: False}&gt;</div></td></tr><tr><td style="font-weight:bold;vertical-align:top">db_sessions</td><td valign="top">:</td><td><div>set([])</div></td></tr><tr><td style="font-weight:bold;vertical-align:top">debugging</td><td valign="top">:</td><td><div>False</div></td></tr><tr><td style="font-weight:bold;vertical-align:top">gluon_parent</td><td valign="top">:</td><td><div>/Users/huyheo/Documents/huy/blogging/web2py</div></td></tr><tr><td style="font-weight:bold;vertical-align:top">is_jython</td><td valign="top">:</td><td><div>False</div></td></tr><tr><td style="font-weight:bold;vertical-align:top">is_pypy</td><td valign="top">:</td><td><div>False</div></td></tr><tr><td style="font-weight:bold;vertical-align:top">local_hosts</td><td valign="top">:</td><td><div><table><tr><td><div>fe80::aa20:66ff:fe54:c1c7%en0</div></td></tr><tr><td><div>124.46.127.216</div></td></tr><tr><td><div>::ffff:127.0.0.1</div></td></tr><tr><td><div>::1</div></td></tr><tr><td><div>vkxs-Mac-mini.local</div></td></tr><tr><td><div>127.0.0.1</div></td></tr></table></div></td></tr><tr><td style="font-weight:bold;vertical-align:top">web2py_version</td><td valign="top">:</td><td><div>2.5.1-stable+timestamp.2013.06.16.12.00.29</div></td></tr></table></div></td></tr><tr><td style="font-weight:bold;vertical-align:top">is_https</td><td valign="top">:</td><td><div>False</div></td></tr><tr><td style="font-weight:bold;vertical-align:top">is_local</td><td valign="top">:</td><td><div>True</div></td></tr><tr><td style="font-weight:bold;vertical-align:top">is_restful</td><td valign="top">:</td><td><div>False</div></td></tr><tr><td style="font-weight:bold;vertical-align:top">now</td><td valign="top">:</td><td><div>datetime.datetime(2013, 9, 27, 11, 7, 40, 813251)</div></td></tr><tr><td style="font-weight:bold;vertical-align:top">post_vars</td><td valign="top">:</td><td><div><table><tr><td style="font-weight:bold;vertical-align:top">editor1</td><td valign="top">:</td><td><div>&lt;h1&gt;&lt;span style=&quot;font-size:72px&quot;&gt;&lt;span style=&quot;font-family:courier new,courier,monospace&quot;&gt;H\xe1\xba\xa1nh ph&amp;uacute;c l&amp;agrave; m\xe1\xbb\x99t \xc4\x91&amp;ocirc;i gi&amp;agrave;y&lt;/span&gt;&lt;/span&gt;&lt;/h1&gt;\r\n\r\n&lt;p&gt;&amp;nbsp;&lt;/p&gt;\r\n\r\n&lt;p&gt;&amp;nbsp;&lt;/p&gt;\r\n\r\n&lt;p&gt;&lt;span style=&quot;font-family:courier new,courier,monospace&quot;&gt;&lt;span style=&quot;font-size:16px&quot;&gt;&lt;span style=&quot;color:#666666&quot;&gt;&lt;strong&gt;&lt;strong&gt;C&amp;oacute; ai \xc4\x91&amp;oacute; n&amp;oacute;i r\xe1\xba\xb1ng h\xe1\xba\xa1nh ph&amp;uacute;c l&amp;agrave; m\xe1\xbb\x99t \xc4\x91&amp;ocirc;i gi&amp;agrave;y, thay v&amp;igrave; trang ho&amp;agrave;ng cho n&amp;oacute;, h&amp;atilde;y ki\xe1\xba\xbfm \xc4\x91&amp;ocirc;i gi&amp;agrave;y \xc4\x91i v\xe1\xbb\xaba ch&amp;acirc;n.&lt;/strong&gt;&lt;/strong&gt;&lt;/span&gt;&lt;/span&gt;&lt;/span&gt;&lt;br /&gt;\r\n&amp;nbsp;&lt;/p&gt;\r\n\r\n&lt;div&gt;&lt;span style=&quot;font-family:courier new,courier,monospace&quot;&gt;&lt;span style=&quot;font-size:16px&quot;&gt;&lt;span style=&quot;color:#666666&quot;&gt;&lt;strong&gt;*******&lt;/strong&gt;&lt;/span&gt;&lt;/span&gt;&lt;/span&gt;&lt;/div&gt;\r\n\r\n&lt;p&gt;&lt;br /&gt;\r\n&lt;span style=&quot;font-family:courier new,courier,monospace&quot;&gt;&lt;span style=&quot;font-size:16px&quot;&gt;&lt;span style=&quot;color:#666666&quot;&gt;&lt;strong&gt;M&amp;ugrave;a h&amp;egrave; th&amp;acirc;n th\xc6\xb0\xc6\xa1ng kh&amp;ocirc;ng ch\xe1\xbb\x89 v\xe1\xbb\x9bi ti\xe1\xba\xbfng ve r&amp;acirc;m ran k\xe1\xba\xbft th&amp;agrave;nh b\xe1\xba\xa3n giao h\xc6\xb0\xe1\xbb\x9fng ng\xe1\xbb\x8dt ng&amp;agrave;o, kh&amp;ocirc;ng ch\xe1\xbb\x89 v&amp;igrave; m&amp;agrave;u v&amp;agrave;ng c\xe1\xbb\xa7a n\xe1\xba\xafng, m&amp;agrave;u \xc4\x91\xe1\xbb\x8f c\xe1\xbb\xa7a ph\xc6\xb0\xe1\xbb\xa3ng hay m&amp;agrave;u t&amp;iacute;m b\xe1\xba\xb1ng l\xc4\x83ng. M&amp;agrave; m&amp;ugrave;a h&amp;egrave; b\xe1\xba\xaft \xc4\x91\xe1\xba\xa7u bi\xe1\xba\xbft y&amp;ecirc;u y&amp;ecirc;u, th\xc6\xb0\xc6\xa1ng th\xc6\xb0\xc6\xa1ng m\xe1\xbb\x99t ai \xc4\x91&amp;oacute;. Khi b\xe1\xba\xa1n c\xe1\xba\xa3m th\xe1\xba\xa5y&amp;nbsp; tr&amp;aacute;i tim m&amp;igrave;nh \xc4\x91ang rung \xc4\x91\xe1\xbb\x99ng, ngh\xc4\xa9a l&amp;agrave; b\xe1\xba\xa1n \xc4\x91ang l\xe1\xbb\x9bn ch\xc4\x83ng.&lt;br /&gt;\r\n&lt;br /&gt;\r\nL\xe1\xbb\x9bn th\xe1\xba\xadt, s\xe1\xba\xafp qua 12 n\xc4\x83m \xc4\x91&amp;egrave;n s&amp;aacute;ch r\xe1\xbb\x93i c&amp;ograve;n g&amp;igrave;, v&amp;agrave; n&amp;oacute; kh&amp;ocirc;ng t\xc6\xb0\xe1\xbb\x9fng t\xc6\xb0\xe1\xbb\xa3ng n\xe1\xbb\x95i, k\xe1\xba\xbft th&amp;uacute;c n\xc4\x83m h\xe1\xbb\x8dc l&amp;agrave; \xc4\x91\xe1\xbb\xa3t c\xe1\xba\xa3m n\xe1\xba\xafng nh\xe1\xba\xb9 v\xe1\xbb\x9bi t&amp;ecirc;n b\xe1\xba\xa1n h\xe1\xbb\x8dc c&amp;ugrave;ng l\xe1\xbb\x9bp, ng\xe1\xbb\x93i c&amp;ugrave;ng b&amp;agrave;n, l\xe1\xba\xa1i l&amp;agrave; t&amp;ecirc;n chuy&amp;ecirc;n g&amp;acirc;y phi\xe1\xbb\x81n ph\xe1\xbb\xa9c cho n&amp;oacute; \xe1\xba\xa5y ch\xe1\xbb\xa9 .&amp;nbsp;&lt;br /&gt;\r\nCu\xe1\xbb\x91i c\xe1\xba\xa5p, c\xe1\xba\xa3 l\xe1\xbb\x9bp l\xe1\xba\xa1i nh&amp;ocirc;n nhao l&amp;ecirc;n m\xe1\xba\xa5y v\xe1\xbb\xa5 li&amp;ecirc;n hoan, truy\xe1\xbb\x81n tay nhau ghi l\xc6\xb0u b&amp;uacute;t, n&amp;agrave;o l&amp;agrave; c&amp;aacute;i H\xe1\xba\xa1nh khoe m\xe1\xbb\x9bi mua m\xe1\xbb\x99t cu\xe1\xbb\x91n s\xe1\xbb\x95 xinh xinh c&amp;oacute; h&amp;igrave;nh c&amp;aacute;c th\xe1\xba\xa7n t\xc6\xb0\xe1\xbb\xa3ng , th\xe1\xba\xb1ng \xc4\x90\xe1\xba\xa1t v\xe1\xbb\x9bi quy\xe1\xbb\x83n s\xe1\xbb\x95 m&amp;agrave;u \xc4\x91en da ,v&amp;agrave; n&amp;oacute; \xc4\x91\xe1\xbb\x83 &amp;yacute; th\xe1\xba\xa5y t&amp;ecirc;n Qu&amp;acirc;n kh&amp;oacute; \xc6\xb0a ng\xe1\xbb\x93i c\xe1\xba\xa1nh c\xc5\xa9ng c&amp;oacute; cu\xe1\xbb\x91n l\xc6\xb0u b&amp;uacute;t m&amp;agrave;u \xc4\x91\xe1\xba\xa5t, &amp;eacute;p h&amp;igrave;nh c\xe1\xbb\x8f b\xe1\xbb\x91n l&amp;aacute;, nh&amp;igrave;n c&amp;oacute; r\xe1\xba\xa5t c\xe1\xbb\x95. Ch&amp;iacute;nh \xc4\x91i\xe1\xbb\x81u n&amp;agrave;y khi\xe1\xba\xbfn n&amp;oacute; ch&amp;uacute; &amp;yacute;, k\xe1\xbb\xb3 l\xe1\xba\xa1 h\xc6\xa1n khi ai ai c\xc5\xa9ng chuy\xe1\xbb\x81n tay nhau ghi ghi ngo&amp;aacute;y ngo&amp;aacute;y \xc4\x91\xe1\xbb\xa7 th\xe1\xbb\xa9 m&amp;agrave; t&amp;ecirc;n Qu&amp;acirc;n n&amp;agrave;y v\xe1\xba\xabn kh&amp;ocirc;ng th\xe1\xba\xa5y \xc4\x91\xe1\xbb\x99ng t\xc4\xa9nh g&amp;igrave;. Ph\xe1\xba\xa3i th&amp;uacute; nh\xe1\xba\xadn r\xe1\xba\xb1ng n&amp;oacute; tr&amp;ocirc;ng gi\xe1\xbb\x91ng s\xe1\xbb\x95 tay ghi ch&amp;uacute; h\xc6\xa1n b\xe1\xbb\x9fi l\xe1\xba\xbd l&amp;uacute;c n&amp;agrave;o c\xc5\xa9ng c&amp;oacute; m\xe1\xba\xb7t tr&amp;ecirc;n tay c\xe1\xbb\xa7a h\xe1\xba\xafn .&lt;br /&gt;\r\n&lt;br /&gt;\r\nH\xc6\xa1i t&amp;ograve; m&amp;ograve; n&amp;ecirc;n n&amp;oacute; quy\xe1\xba\xbft \xc4\x91\xe1\xbb\x8bnh li\xe1\xbb\x81u m\xe1\xbb\x99t phen xem th\xe1\xbb\xad b&amp;ecirc;n trong \xc4\x91\xe1\xba\xa5y ch\xe1\xbb\xa9a g&amp;igrave;. \xc4\x90\xe1\xba\xbfn gi\xe1\xbb\xafa bu\xe1\xbb\x95i h\xe1\xbb\x8dc, m\xe1\xbb\x8di ng\xc6\xb0\xe1\xbb\x9di xu\xe1\xbb\x91ng c\xc4\x83ng tin \xc4\x83n \xc4\x91i\xe1\xbb\x83m t&amp;acirc;m, n&amp;oacute; l\xe1\xba\xa5y c\xe1\xbb\x9b \xc4\x91au b\xe1\xbb\xa5ng \xe1\xbb\x9f l\xe1\xba\xa1i \xc4\x91\xe1\xbb\x83 tr&amp;ocirc;ng l\xe1\xbb\x9bp. Ch\xe1\xbb\x89 c&amp;ograve;n m&amp;igrave;nh n&amp;oacute;, nh&amp;igrave;n quanh cho ch\xe1\xba\xafc ch\xe1\xba\xafn r\xe1\xba\xb1ng kh&amp;ocirc;ng c&amp;ograve;n ai, kh\xe1\xbb\x81u nh\xe1\xba\xb9 cu\xe1\xbb\x91n s\xe1\xbb\x95 d\xc6\xb0\xe1\xbb\x9bi ng\xc4\x83n b&amp;agrave;n, n&amp;oacute; l\xe1\xba\xadt t\xe1\xbb\xabng trang ch\xe1\xbb\x9d \xc4\x91\xe1\xbb\xa3i. M\xe1\xbb\x99t, hai, ba trang, . . . t\xe1\xba\xa5t c\xe1\xba\xa3 \xc4\x91\xe1\xbb\x81u gi\xe1\xba\xa5y tr\xe1\xba\xafng, ch&amp;aacute;n n\xe1\xba\xa3n \xc4\x91\xe1\xbb\x8bnh g\xe1\xba\xa5p l\xe1\xba\xa1i th&amp;igrave; b\xe1\xba\xa5t ch\xe1\xbb\xa3t c&amp;oacute; t\xe1\xbb\x9d gi\xe1\xba\xa5y r\xc6\xa1i ra, t\xe1\xbb\x9d gi\xe1\xba\xa5y c&amp;oacute; m&amp;ugrave;i m\xe1\xbb\xb1c th\xc6\xa1m m&amp;agrave; n&amp;oacute; r\xe1\xba\xa5t th&amp;iacute;ch. C&amp;oacute; lo s\xe1\xbb\xa3, c&amp;oacute; h\xe1\xbb\x93i h\xe1\xbb\x99p nh\xc6\xb0ng ng\xe1\xba\xa1c nhi&amp;ecirc;n th&amp;igrave; nhi\xe1\xbb\x81u b\xe1\xbb\x9fi l&amp;aacute; th\xc6\xb0 &amp;ldquo;g\xe1\xbb\xadi c&amp;ocirc; b\xe1\xba\xa1n nh\xe1\xbb\x8f&amp;rdquo; \xc4\x91\xe1\xbb\x81 c\xe1\xba\xadp \xc4\x91\xe1\xba\xbfn n&amp;oacute;. Bi\xe1\xba\xbft l&amp;agrave; m\xe1\xbb\x8di ng\xc6\xb0\xe1\xbb\x9di s\xe1\xba\xafp tr\xe1\xbb\x9f l\xe1\xba\xa1i l\xe1\xbb\x9bp nh\xc6\xb0ng n&amp;oacute; v\xe1\xba\xabn c\xe1\xbb\x91 n&amp;aacute;n \xc4\x91\xe1\xbb\x8dc ti\xe1\xba\xbfp, khi v&amp;agrave;i b\xe1\xba\xa1n v&amp;agrave;o l\xe1\xbb\x9bp th&amp;igrave; n&amp;oacute; m\xe1\xbb\x9bi ng\xe1\xba\xa9n ng\xc6\xa1 tr\xe1\xba\xa3 cu\xe1\xbb\x91n s\xe1\xbb\x95 v\xe1\xbb\x81 ch\xe1\xbb\x97 c\xc5\xa9.&lt;/strong&gt;&lt;/span&gt;&lt;/span&gt;&lt;/span&gt;&lt;/p&gt;\r\n</div></td></tr></table></div></td></tr><tr><td style="font-weight:bold;vertical-align:top">raw_args</td><td valign="top">:</td><td><div>5</div></td></tr><tr><td style="font-weight:bold;vertical-align:top">raw_extension</td><td valign="top">:</td><td><div>None</div></td></tr><tr><td style="font-weight:bold;vertical-align:top">url</td><td valign="top">:</td><td><div>/welcome/default/edit_blog/5</div></td></tr><tr><td style="font-weight:bold;vertical-align:top">utcnow</td><td valign="top">:</td><td><div>datetime.datetime(2013, 9, 27, 4, 7, 40, 813264)</div></td></tr><tr><td style="font-weight:bold;vertical-align:top">uuid</td><td valign="top">:</td><td><div>welcome/127.0.0.1.2013-09-27.11-07-40.2705080f-8222-47ae-8229-e0b7b74d5c12</div></td></tr><tr><td style="font-weight:bold;vertical-align:top">vars</td><td valign="top">:</td><td><div><table><tr><td style="font-weight:bold;vertical-align:top">editor1</td><td valign="top">:</td><td><div>&lt;h1&gt;&lt;span style=&quot;font-size:72px&quot;&gt;&lt;span style=&quot;font-family:courier new,courier,monospace&quot;&gt;H\xe1\xba\xa1nh ph&amp;uacute;c l&amp;agrave; m\xe1\xbb\x99t \xc4\x91&amp;ocirc;i gi&amp;agrave;y&lt;/span&gt;&lt;/span&gt;&lt;/h1&gt;\r\n\r\n&lt;p&gt;&amp;nbsp;&lt;/p&gt;\r\n\r\n&lt;p&gt;&amp;nbsp;&lt;/p&gt;\r\n\r\n&lt;p&gt;&lt;span style=&quot;font-family:courier new,courier,monospace&quot;&gt;&lt;span style=&quot;font-size:16px&quot;&gt;&lt;span style=&quot;color:#666666&quot;&gt;&lt;strong&gt;&lt;strong&gt;C&amp;oacute; ai \xc4\x91&amp;oacute; n&amp;oacute;i r\xe1\xba\xb1ng h\xe1\xba\xa1nh ph&amp;uacute;c l&amp;agrave; m\xe1\xbb\x99t \xc4\x91&amp;ocirc;i gi&amp;agrave;y, thay v&amp;igrave; trang ho&amp;agrave;ng cho n&amp;oacute;, h&amp;atilde;y ki\xe1\xba\xbfm \xc4\x91&amp;ocirc;i gi&amp;agrave;y \xc4\x91i v\xe1\xbb\xaba ch&amp;acirc;n.&lt;/strong&gt;&lt;/strong&gt;&lt;/span&gt;&lt;/span&gt;&lt;/span&gt;&lt;br /&gt;\r\n&amp;nbsp;&lt;/p&gt;\r\n\r\n&lt;div&gt;&lt;span style=&quot;font-family:courier new,courier,monospace&quot;&gt;&lt;span style=&quot;font-size:16px&quot;&gt;&lt;span style=&quot;color:#666666&quot;&gt;&lt;strong&gt;*******&lt;/strong&gt;&lt;/span&gt;&lt;/span&gt;&lt;/span&gt;&lt;/div&gt;\r\n\r\n&lt;p&gt;&lt;br /&gt;\r\n&lt;span style=&quot;font-family:courier new,courier,monospace&quot;&gt;&lt;span style=&quot;font-size:16px&quot;&gt;&lt;span style=&quot;color:#666666&quot;&gt;&lt;strong&gt;M&amp;ugrave;a h&amp;egrave; th&amp;acirc;n th\xc6\xb0\xc6\xa1ng kh&amp;ocirc;ng ch\xe1\xbb\x89 v\xe1\xbb\x9bi ti\xe1\xba\xbfng ve r&amp;acirc;m ran k\xe1\xba\xbft th&amp;agrave;nh b\xe1\xba\xa3n giao h\xc6\xb0\xe1\xbb\x9fng ng\xe1\xbb\x8dt ng&amp;agrave;o, kh&amp;ocirc;ng ch\xe1\xbb\x89 v&amp;igrave; m&amp;agrave;u v&amp;agrave;ng c\xe1\xbb\xa7a n\xe1\xba\xafng, m&amp;agrave;u \xc4\x91\xe1\xbb\x8f c\xe1\xbb\xa7a ph\xc6\xb0\xe1\xbb\xa3ng hay m&amp;agrave;u t&amp;iacute;m b\xe1\xba\xb1ng l\xc4\x83ng. M&amp;agrave; m&amp;ugrave;a h&amp;egrave; b\xe1\xba\xaft \xc4\x91\xe1\xba\xa7u bi\xe1\xba\xbft y&amp;ecirc;u y&amp;ecirc;u, th\xc6\xb0\xc6\xa1ng th\xc6\xb0\xc6\xa1ng m\xe1\xbb\x99t ai \xc4\x91&amp;oacute;. Khi b\xe1\xba\xa1n c\xe1\xba\xa3m th\xe1\xba\xa5y&amp;nbsp; tr&amp;aacute;i tim m&amp;igrave;nh \xc4\x91ang rung \xc4\x91\xe1\xbb\x99ng, ngh\xc4\xa9a l&amp;agrave; b\xe1\xba\xa1n \xc4\x91ang l\xe1\xbb\x9bn ch\xc4\x83ng.&lt;br /&gt;\r\n&lt;br /&gt;\r\nL\xe1\xbb\x9bn th\xe1\xba\xadt, s\xe1\xba\xafp qua 12 n\xc4\x83m \xc4\x91&amp;egrave;n s&amp;aacute;ch r\xe1\xbb\x93i c&amp;ograve;n g&amp;igrave;, v&amp;agrave; n&amp;oacute; kh&amp;ocirc;ng t\xc6\xb0\xe1\xbb\x9fng t\xc6\xb0\xe1\xbb\xa3ng n\xe1\xbb\x95i, k\xe1\xba\xbft th&amp;uacute;c n\xc4\x83m h\xe1\xbb\x8dc l&amp;agrave; \xc4\x91\xe1\xbb\xa3t c\xe1\xba\xa3m n\xe1\xba\xafng nh\xe1\xba\xb9 v\xe1\xbb\x9bi t&amp;ecirc;n b\xe1\xba\xa1n h\xe1\xbb\x8dc c&amp;ugrave;ng l\xe1\xbb\x9bp, ng\xe1\xbb\x93i c&amp;ugrave;ng b&amp;agrave;n, l\xe1\xba\xa1i l&amp;agrave; t&amp;ecirc;n chuy&amp;ecirc;n g&amp;acirc;y phi\xe1\xbb\x81n ph\xe1\xbb\xa9c cho n&amp;oacute; \xe1\xba\xa5y ch\xe1\xbb\xa9 .&amp;nbsp;&lt;br /&gt;\r\nCu\xe1\xbb\x91i c\xe1\xba\xa5p, c\xe1\xba\xa3 l\xe1\xbb\x9bp l\xe1\xba\xa1i nh&amp;ocirc;n nhao l&amp;ecirc;n m\xe1\xba\xa5y v\xe1\xbb\xa5 li&amp;ecirc;n hoan, truy\xe1\xbb\x81n tay nhau ghi l\xc6\xb0u b&amp;uacute;t, n&amp;agrave;o l&amp;agrave; c&amp;aacute;i H\xe1\xba\xa1nh khoe m\xe1\xbb\x9bi mua m\xe1\xbb\x99t cu\xe1\xbb\x91n s\xe1\xbb\x95 xinh xinh c&amp;oacute; h&amp;igrave;nh c&amp;aacute;c th\xe1\xba\xa7n t\xc6\xb0\xe1\xbb\xa3ng , th\xe1\xba\xb1ng \xc4\x90\xe1\xba\xa1t v\xe1\xbb\x9bi quy\xe1\xbb\x83n s\xe1\xbb\x95 m&amp;agrave;u \xc4\x91en da ,v&amp;agrave; n&amp;oacute; \xc4\x91\xe1\xbb\x83 &amp;yacute; th\xe1\xba\xa5y t&amp;ecirc;n Qu&amp;acirc;n kh&amp;oacute; \xc6\xb0a ng\xe1\xbb\x93i c\xe1\xba\xa1nh c\xc5\xa9ng c&amp;oacute; cu\xe1\xbb\x91n l\xc6\xb0u b&amp;uacute;t m&amp;agrave;u \xc4\x91\xe1\xba\xa5t, &amp;eacute;p h&amp;igrave;nh c\xe1\xbb\x8f b\xe1\xbb\x91n l&amp;aacute;, nh&amp;igrave;n c&amp;oacute; r\xe1\xba\xa5t c\xe1\xbb\x95. Ch&amp;iacute;nh \xc4\x91i\xe1\xbb\x81u n&amp;agrave;y khi\xe1\xba\xbfn n&amp;oacute; ch&amp;uacute; &amp;yacute;, k\xe1\xbb\xb3 l\xe1\xba\xa1 h\xc6\xa1n khi ai ai c\xc5\xa9ng chuy\xe1\xbb\x81n tay nhau ghi ghi ngo&amp;aacute;y ngo&amp;aacute;y \xc4\x91\xe1\xbb\xa7 th\xe1\xbb\xa9 m&amp;agrave; t&amp;ecirc;n Qu&amp;acirc;n n&amp;agrave;y v\xe1\xba\xabn kh&amp;ocirc;ng th\xe1\xba\xa5y \xc4\x91\xe1\xbb\x99ng t\xc4\xa9nh g&amp;igrave;. Ph\xe1\xba\xa3i th&amp;uacute; nh\xe1\xba\xadn r\xe1\xba\xb1ng n&amp;oacute; tr&amp;ocirc;ng gi\xe1\xbb\x91ng s\xe1\xbb\x95 tay ghi ch&amp;uacute; h\xc6\xa1n b\xe1\xbb\x9fi l\xe1\xba\xbd l&amp;uacute;c n&amp;agrave;o c\xc5\xa9ng c&amp;oacute; m\xe1\xba\xb7t tr&amp;ecirc;n tay c\xe1\xbb\xa7a h\xe1\xba\xafn .&lt;br /&gt;\r\n&lt;br /&gt;\r\nH\xc6\xa1i t&amp;ograve; m&amp;ograve; n&amp;ecirc;n n&amp;oacute; quy\xe1\xba\xbft \xc4\x91\xe1\xbb\x8bnh li\xe1\xbb\x81u m\xe1\xbb\x99t phen xem th\xe1\xbb\xad b&amp;ecirc;n trong \xc4\x91\xe1\xba\xa5y ch\xe1\xbb\xa9a g&amp;igrave;. \xc4\x90\xe1\xba\xbfn gi\xe1\xbb\xafa bu\xe1\xbb\x95i h\xe1\xbb\x8dc, m\xe1\xbb\x8di ng\xc6\xb0\xe1\xbb\x9di xu\xe1\xbb\x91ng c\xc4\x83ng tin \xc4\x83n \xc4\x91i\xe1\xbb\x83m t&amp;acirc;m, n&amp;oacute; l\xe1\xba\xa5y c\xe1\xbb\x9b \xc4\x91au b\xe1\xbb\xa5ng \xe1\xbb\x9f l\xe1\xba\xa1i \xc4\x91\xe1\xbb\x83 tr&amp;ocirc;ng l\xe1\xbb\x9bp. Ch\xe1\xbb\x89 c&amp;ograve;n m&amp;igrave;nh n&amp;oacute;, nh&amp;igrave;n quanh cho ch\xe1\xba\xafc ch\xe1\xba\xafn r\xe1\xba\xb1ng kh&amp;ocirc;ng c&amp;ograve;n ai, kh\xe1\xbb\x81u nh\xe1\xba\xb9 cu\xe1\xbb\x91n s\xe1\xbb\x95 d\xc6\xb0\xe1\xbb\x9bi ng\xc4\x83n b&amp;agrave;n, n&amp;oacute; l\xe1\xba\xadt t\xe1\xbb\xabng trang ch\xe1\xbb\x9d \xc4\x91\xe1\xbb\xa3i. M\xe1\xbb\x99t, hai, ba trang, . . . t\xe1\xba\xa5t c\xe1\xba\xa3 \xc4\x91\xe1\xbb\x81u gi\xe1\xba\xa5y tr\xe1\xba\xafng, ch&amp;aacute;n n\xe1\xba\xa3n \xc4\x91\xe1\xbb\x8bnh g\xe1\xba\xa5p l\xe1\xba\xa1i th&amp;igrave; b\xe1\xba\xa5t ch\xe1\xbb\xa3t c&amp;oacute; t\xe1\xbb\x9d gi\xe1\xba\xa5y r\xc6\xa1i ra, t\xe1\xbb\x9d gi\xe1\xba\xa5y c&amp;oacute; m&amp;ugrave;i m\xe1\xbb\xb1c th\xc6\xa1m m&amp;agrave; n&amp;oacute; r\xe1\xba\xa5t th&amp;iacute;ch. C&amp;oacute; lo s\xe1\xbb\xa3, c&amp;oacute; h\xe1\xbb\x93i h\xe1\xbb\x99p nh\xc6\xb0ng ng\xe1\xba\xa1c nhi&amp;ecirc;n th&amp;igrave; nhi\xe1\xbb\x81u b\xe1\xbb\x9fi l&amp;aacute; th\xc6\xb0 &amp;ldquo;g\xe1\xbb\xadi c&amp;ocirc; b\xe1\xba\xa1n nh\xe1\xbb\x8f&amp;rdquo; \xc4\x91\xe1\xbb\x81 c\xe1\xba\xadp \xc4\x91\xe1\xba\xbfn n&amp;oacute;. Bi\xe1\xba\xbft l&amp;agrave; m\xe1\xbb\x8di ng\xc6\xb0\xe1\xbb\x9di s\xe1\xba\xafp tr\xe1\xbb\x9f l\xe1\xba\xa1i l\xe1\xbb\x9bp nh\xc6\xb0ng n&amp;oacute; v\xe1\xba\xabn c\xe1\xbb\x91 n&amp;aacute;n \xc4\x91\xe1\xbb\x8dc ti\xe1\xba\xbfp, khi v&amp;agrave;i b\xe1\xba\xa1n v&amp;agrave;o l\xe1\xbb\x9bp th&amp;igrave; n&amp;oacute; m\xe1\xbb\x9bi ng\xe1\xba\xa9n ng\xc6\xa1 tr\xe1\xba\xa3 cu\xe1\xbb\x91n s\xe1\xbb\x95 v\xe1\xbb\x81 ch\xe1\xbb\x97 c\xc5\xa9.&lt;/strong&gt;&lt;/span&gt;&lt;/span&gt;&lt;/span&gt;&lt;/p&gt;\r\n</div></td></tr></table></div></td></tr><tr><td style="font-weight:bold;vertical-align:top">wsgi</td><td valign="top">:</td><td><div><table><tr><td style="font-weight:bold;vertical-align:top">environ</td><td valign="top">:</td><td><div><table><tr><td style="font-weight:bold;vertical-align:top">CONTENT_LENGTH</td><td valign="top">:</td><td><div>6507</div></td></tr><tr><td style="font-weight:bold;vertical-align:top">CONTENT_TYPE</td><td valign="top">:</td><td><div>application/x-www-form-urlencoded</div></td></tr><tr><td style="font-weight:bold;vertical-align:top">HTTP_ACCEPT</td><td valign="top">:</td><td><div>text/html,application/xhtml+xml,application/xml;q=0.9,*/*;q=0.8</div></td></tr><tr><td style="font-weight:bold;vertical-align:top">HTTP_ACCEPT_ENCODING</td><td valign="top">:</td><td><div>gzip, deflate</div></td></tr><tr><td style="font-weight:bold;vertical-align:top">HTTP_ACCEPT_LANGUAGE</td><td valign="top">:</td><td><div>vi-vn</div></td></tr><tr><td style="font-weight:bold;vertical-align:top">HTTP_CONNECTION</td><td valign="top">:</td><td><div>keep-alive</div></td></tr><tr><td style="font-weight:bold;vertical-align:top">HTTP_CONTENT_LENGTH</td><td valign="top">:</td><td><div>6507</div></td></tr><tr><td style="font-weight:bold;vertical-align:top">HTTP_CONTENT_TYPE</td><td valign="top">:</td><td><div>application/x-www-form-urlencoded</div></td></tr><tr><td style="font-weight:bold;vertical-align:top">HTTP_COOKIE</td><td valign="top">:</td><td><div>session_id_welcome=127.0.0.1-79870310-6908-4bc7-9eab-ce9785e5a6d0; session_id_admin=127.0.0.1-8ed52a34-ad68-4751-b8d4-e0e917f1c6cc</div></td></tr><tr><td style="font-weight:bold;vertical-align:top">HTTP_HOST</td><td valign="top">:</td><td><div>127.0.0.1:8000</div></td></tr><tr><td style="font-weight:bold;vertical-align:top">HTTP_ORIGIN</td><td valign="top">:</td><td><div>http://127.0.0.1:8000</div></td></tr><tr><td style="font-weight:bold;vertical-align:top">HTTP_REFERER</td><td valign="top">:</td><td><div>http://127.0.0.1:8000/welcome/default/edit_blog/5</div></td></tr><tr><td style="font-weight:bold;vertical-align:top">HTTP_USER_AGENT</td><td valign="top">:</td><td><div>Mozilla/5.0 (Macintosh; Intel Mac OS X 10_8_4) AppleWebKit/536.30.1 (KHTML, like Gecko) Version/6.0.5 Safari/536.30.1</div></td></tr><tr><td style="font-weight:bold;vertical-align:top">PATH_INFO</td><td valign="top">:</td><td><div>/welcome/default/edit_blog/5</div></td></tr><tr><td style="font-weight:bold;vertical-align:top">QUERY_STRING</td><td valign="top">:</td><td><div></div></td></tr><tr><td style="font-weight:bold;vertical-align:top">REMOTE_ADDR</td><td valign="top">:</td><td><div>127.0.0.1</div></td></tr><tr><td style="font-weight:bold;vertical-align:top">REMOTE_PORT</td><td valign="top">:</td><td><div>50843</div></td></tr><tr><td style="font-weight:bold;vertical-align:top">REQUEST_METHOD</td><td valign="top">:</td><td><div>POST</div></td></tr><tr><td style="font-weight:bold;vertical-align:top">REQUEST_URI</td><td valign="top">:</td><td><div>/welcome/default/edit_blog/5</div></td></tr><tr><td style="font-weight:bold;vertical-align:top">SCRIPT_NAME</td><td valign="top">:</td><td><div></div></td></tr><tr><td style="font-weight:bold;vertical-align:top">SERVER_NAME</td><td valign="top">:</td><td><div>vkxs-Mac-mini.local</div></td></tr><tr><td style="font-weight:bold;vertical-align:top">SERVER_PORT</td><td valign="top">:</td><td><div>8000</div></td></tr><tr><td style="font-weight:bold;vertical-align:top">SERVER_PROTOCOL</td><td valign="top">:</td><td><div>HTTP/1.1</div></td></tr><tr><td style="font-weight:bold;vertical-align:top">SERVER_SOFTWARE</td><td valign="top">:</td><td><div>Rocket 1.2.6</div></td></tr><tr><td style="font-weight:bold;vertical-align:top">wsgi.errors</td><td valign="top">:</td><td><div>&lt;open file &#x27;&lt;stderr&gt;&#x27;, mode &#x27;w&#x27; at 0x1084da270&gt;</div></td></tr><tr><td style="font-weight:bold;vertical-align:top">wsgi.file_wrapper</td><td valign="top">:</td><td><div>&lt;class wsgiref.util.FileWrapper at 0x108d0fce8&gt;</div></td></tr><tr><td style="font-weight:bold;vertical-align:top">wsgi.input</td><td valign="top">:</td><td><div>&lt;open file &#x27;&lt;fdopen&gt;&#x27;, mode &#x27;w+b&#x27; at 0x111130150&gt;</div></td></tr><tr><td style="font-weight:bold;vertical-align:top">wsgi.multiprocess</td><td valign="top">:</td><td><div>False</div></td></tr><tr><td style="font-weight:bold;vertical-align:top">wsgi.multithread</td><td valign="top">:</td><td><div>True</div></td></tr><tr><td style="font-weight:bold;vertical-align:top">wsgi.run_once</td><td valign="top">:</td><td><div>False</div></td></tr><tr><td style="font-weight:bold;vertical-align:top">wsgi.url_scheme</td><td valign="top">:</td><td><div>http</div></td></tr><tr><td style="font-weight:bold;vertical-align:top">wsgi.version</td><td valign="top">:</td><td><div>1</div></td></tr></table></div></td></tr></table></div></td></tr></table></div>'
tRp58
sS'frames'
p59
(lp60
(dp61
S'file'
p62
S'/Users/huyheo/Documents/huy/blogging/web2py/gluon/restricted.py'
p63
sS'dump'
p64
(dp65
S'environment'
p66
S"{'A': <class 'gluon.html.A'>, 'ALL_MOVIE_TYPE': 'all_movie', 'ANY_OF': <class 'gluon.validators.ANY_OF'>, 'ARCHIVE': 'archive', 'Auth': <class 'gluon.tools.Auth'>, 'B': <class 'gluon.html.B'>, 'BEAUTIFY': <class 'gluon.html.BEAUTIFY'>, 'BODY': <class 'gluon.html.BODY'>, 'BR': <class 'gluon.html.BR'>, 'BUTTON': <class 'gluon.html.BUTTON'>, ...}"
p67
sS'ccode'
p68
S'<code object <module> at 0x111278db0, file "/Use...cations/welcome/controllers/default.py", line 12>'
p69
ssS'lnum'
p70
I212
sS'lines'
p71
(dp72
I207
S'    try:'
p73
sI208
S'        if isinstance(code, types.CodeType):'
p74
sI209
S'            ccode = code'
p75
sI210
S'        else:'
p76
sI211
S'            ccode = compile2(code, layer)'
p77
sI212
S'        exec ccode in environment'
p78
sI213
S'    except HTTP:'
p79
sI214
S'        raise'
p80
sI215
S'    except RestrictedError:'
p81
sI216
S'        # do not encapsulate (obfuscate) the original RestrictedError'
p82
ssS'call'
p83
S"(code='# -*- coding: utf-8 -*-\\n# this file is released ...ct()\\n\\nresponse._vars=response._caller(edit_blog)\\n', environment={'A': <class 'gluon.html.A'>, 'ALL_MOVIE_TYPE': 'all_movie', 'ANY_OF': <class 'gluon.validators.ANY_OF'>, 'ARCHIVE': 'archive', 'Auth': <class 'gluon.tools.Auth'>, 'B': <class 'gluon.html.B'>, 'BEAUTIFY': <class 'gluon.html.BEAUTIFY'>, 'BODY': <class 'gluon.html.BODY'>, 'BR': <class 'gluon.html.BR'>, 'BUTTON': <class 'gluon.html.BUTTON'>, ...}, layer='/Users/huyheo/Documents/huy/blogging/web2py/applications/welcome/controllers/default.py')"
p84
sS'func'
p85
S'restricted'
p86
sa(dp87
g62
S'/Users/huyheo/Documents/huy/blogging/web2py/applications/welcome/controllers/default.py'
p88
sg64
(dp89
sg70
I84
sg71
(dp90
I73
S'    log.info(" request.vars.editor1 = %s", request.vars.editor1)'
p91
sI74
S'    log.info("session.user = %s", auth.user)'
p92
sI75
S'    test = request.vars.editor1'
p93
sI76
S'    try:'
p94
sI77
S'        id = db.blog.insert(story = request.vars.editor1,'
p95
sI78
S'                            writer = auth.user.id)'
p96
sI79
S"        log.info('successfully create a blog')"
p97
sI80
S'    except:'
p98
sI81
S"        log.error('cant create blog')"
p99
sI82
S'    return dict()'
p100
ssg83
S'()'
p101
sg85
S'<module>'
p102
sa(dp103
g62
S'/Users/huyheo/Documents/huy/blogging/web2py/gluon/globals.py'
p104
sg64
(dp105
S'self'
p106
S'undefined'
p107
sS'f'
S'<function edit_blog>'
p108
ssg70
I194
sg71
(dp109
I192
S"        self.delimiters = ('{{', '}}')"
p110
sI193
S'        self._vars = None'
p111
sI194
S'        self._caller = lambda f: f()'
p112
sI195
S'        self._view_environment = None'
p113
sI196
S'        self._custom_commit = None'
p114
sI197
S'        self._custom_rollback = None'
p115
sI198
S''
sI189
S'        self.menu = []             # used by the default view layout'
p116
sI190
S'        self.files = []            # used by web2py_ajax.html'
p117
sI191
S'        self.generic_patterns = []  # patterns to allow generic views'
p118
ssg83
S'(f=<function edit_blog>)'
p119
sg85
S'<lambda>'
p120
sa(dp121
g62
S'/Users/huyheo/Documents/huy/blogging/web2py/applications/welcome/controllers/default.py'
p122
sg64
(dp123
S'story'
p124
g107
sS'global request'
p125
S"<Storage {'function': 'edit_blog', 'body': <open...5\\xa9.</strong></span></span></span></p>\\r\\n'}>}>"
p126
sS'db.blog'
p127
S'<Table blog (id,story,writer)>'
p128
sS'request.args'
p129
S"['5']"
p130
sS'request.vars.editor1'
p131
S'\'<h1><span style="font-size:72px"><span style="fo...\\xbb\\x81 ch\\xe1\\xbb\\x97 c\\xc5\\xa9.</strong></span></span></span></p>\\r\\n\''
p132
sS'db.blog.id'
p133
S'<gluon.dal.Field object>'
p134
sS'global db'
p135
S'<DAL uri="sqlite://storage.sqlite">'
p136
sS').update_record'
p137
g107
sS'builtinint'
p138
S"<type 'int'>"
p139
sS'request.vars'
p140
S'<Storage {\'editor1\': \'<h1><span style="font-size...xc5\\xa9.</strong></span></span></span></p>\\r\\n\'}>'
p141
ssg70
I53
sg71
(dp142
I48
S''
sI49
S'def edit_blog():'
p143
sI50
S'    item_info = blog()'
p144
sI51
S'    item = item_info["item"]'
p145
sI52
S'    if request.vars.editor1:'
p146
sI53
S'        db(db.blog.id == int(request.args[0])).update_record(story = request.vars.editor1)'
p147
sI54
S''
sI55
S''
sI56
S''
sI57
S'    return dict(item = item)'
p148
ssg83
S'()'
p149
sg85
S'edit_blog'
p150
sasS'pyver'
p151
S'Python 2.7.2: /usr/bin/python (prefix: /System/Library/Frameworks/Python.framework/Versions/2.7)'
p152
sS'session'
p153
g57
(S's\xf1\x07\x00\x00<div><table><tr><td style="font-weight:bold;vertical-align:top">auth</td><td valign="top">:</td><td><div><table><tr><td style="font-weight:bold;vertical-align:top">expiration</td><td valign="top">:</td><td><div>2592000</div></td></tr><tr><td style="font-weight:bold;vertical-align:top">hmac_key</td><td valign="top">:</td><td><div>75a4501e-3f7a-4c83-b2e1-b37843450643</div></td></tr><tr><td style="font-weight:bold;vertical-align:top">last_visit</td><td valign="top">:</td><td><div>datetime.datetime(2013, 9, 26, 18, 20, 32, 43601)</div></td></tr><tr><td style="font-weight:bold;vertical-align:top">remember</td><td valign="top">:</td><td><div>True</div></td></tr><tr><td style="font-weight:bold;vertical-align:top">user</td><td valign="top">:</td><td><div><table><tr><td style="font-weight:bold;vertical-align:top">email</td><td valign="top">:</td><td><div>hello.i.love.it@gmail.com</div></td></tr><tr><td style="font-weight:bold;vertical-align:top">first_name</td><td valign="top">:</td><td><div>nguyen</div></td></tr><tr><td style="font-weight:bold;vertical-align:top">id</td><td valign="top">:</td><td><div>2L</div></td></tr><tr><td style="font-weight:bold;vertical-align:top">last_name</td><td valign="top">:</td><td><div>mai huy</div></td></tr><tr><td style="font-weight:bold;vertical-align:top">registration_id</td><td valign="top">:</td><td><div></div></td></tr><tr><td style="font-weight:bold;vertical-align:top">registration_key</td><td valign="top">:</td><td><div></div></td></tr><tr><td style="font-weight:bold;vertical-align:top">reset_password_key</td><td valign="top">:</td><td><div></div></td></tr></table></div></td></tr><tr><td style="font-weight:bold;vertical-align:top">user_groups</td><td valign="top">:</td><td><div><table><tr><td style="font-weight:bold;vertical-align:top">2</td><td valign="top">:</td><td><div>user_2</div></td></tr></table></div></td></tr></table></div></td></tr><tr><td style="font-weight:bold;vertical-align:top">flash</td><td valign="top">:</td><td><div>None</div></td></tr></table></div>'
tRp154
sS'etype'
p155
S"<type 'exceptions.AttributeError'>"
p156
sS'date'
p157
S'Fri Sep 27 11:07:40 2013'
p158
sS'response'
p159
g57
(S's\xd6,\x00\x00<div><table><tr><td style="font-weight:bold;vertical-align:top">body</td><td valign="top">:</td><td><div>&lt;cStringIO.StringO object at 0x1110fe618&gt;</div></td></tr><tr><td style="font-weight:bold;vertical-align:top">cookies</td><td valign="top">:</td><td><div><table><tr><td style="font-weight:bold;vertical-align:top">session_id_welcome</td><td valign="top">:</td><td><div>127.0.0.1-79870310-6908-4bc7-9eab-ce9785e5a6d0<table><tr><td style="font-weight:bold;vertical-align:top">comment</td><td valign="top">:</td><td><div></div></td></tr><tr><td style="font-weight:bold;vertical-align:top">domain</td><td valign="top">:</td><td><div></div></td></tr><tr><td style="font-weight:bold;vertical-align:top">expires</td><td valign="top">:</td><td><div>2592000</div></td></tr><tr><td style="font-weight:bold;vertical-align:top">httponly</td><td valign="top">:</td><td><div></div></td></tr><tr><td style="font-weight:bold;vertical-align:top">max-age</td><td valign="top">:</td><td><div></div></td></tr><tr><td style="font-weight:bold;vertical-align:top">path</td><td valign="top">:</td><td><div>/</div></td></tr><tr><td style="font-weight:bold;vertical-align:top">secure</td><td valign="top">:</td><td><div></div></td></tr><tr><td style="font-weight:bold;vertical-align:top">version</td><td valign="top">:</td><td><div></div></td></tr></table></div></td></tr></table></div></td></tr><tr><td style="font-weight:bold;vertical-align:top">delimiters</td><td valign="top">:</td><td><div><table><tr><td><div>{{</div></td></tr><tr><td><div>}}</div></td></tr></table></div></td></tr><tr><td style="font-weight:bold;vertical-align:top">files</td><td valign="top">:</td><td><div><table></table></div></td></tr><tr><td style="font-weight:bold;vertical-align:top">flash</td><td valign="top">:</td><td><div></div></td></tr><tr><td style="font-weight:bold;vertical-align:top">generic_patterns</td><td valign="top">:</td><td><div><table><tr><td><div>*</div></td></tr></table></div></td></tr><tr><td style="font-weight:bold;vertical-align:top">google_analytics_id</td><td valign="top">:</td><td><div>None</div></td></tr><tr><td style="font-weight:bold;vertical-align:top">headers</td><td valign="top">:</td><td><div><table><tr><td style="font-weight:bold;vertical-align:top">X-Powered-By</td><td valign="top">:</td><td><div>web2py</div></td></tr></table></div></td></tr><tr><td style="font-weight:bold;vertical-align:top">logo</td><td valign="top">:</td><td><div><a class="brand" href="http://www.web2py.com/"><b>web<span>2</span>py</b>&trade;&nbsp;</a></div></td></tr><tr><td style="font-weight:bold;vertical-align:top">menu</td><td valign="top">:</td><td><div><table><tr><td><div><table><tr><td><div>Home</div></td></tr><tr><td><div>False</div></td></tr><tr><td><div>/welcome/default/index</div></td></tr><tr><td><div><table></table></div></td></tr></table></div></td></tr><tr><td><div><table><tr><td><div><span class="highlighted">web2py</span></div></td></tr><tr><td><div>False</div></td></tr><tr><td><div>http://web2py.com</div></td></tr><tr><td><div><table><tr><td><div><table><tr><td><div>My Sites</div></td></tr><tr><td><div>False</div></td></tr><tr><td><div>/admin/default/site</div></td></tr></table></div></td></tr><tr><td><div><table><tr><td><div>This App</div></td></tr><tr><td><div>False</div></td></tr><tr><td><div>/admin/default/design/welcome</div></td></tr><tr><td><div>[(&lt;lazyT &#x27;Controller&#x27;&gt;, False, &#x27;/admin/default/edit/welcome/controllers/default.py&#x27;), (&lt;lazyT &#x27;View&#x27;&gt;, False, &#x27;/admin/default/edit/welcome/views/default/edit_blog.html&#x27;), (&lt;lazyT &#x27;Layout&#x27;&gt;, False, &#x27;/admin/default/edit/welcome/views/layout.html&#x27;), (&lt;lazyT &#x27;Stylesheet&#x27;&gt;, False, &#x27;/admin/default/edit/welcome/static/css/web2py.css&#x27;), (&lt;lazyT &#x27;DB Model&#x27;&gt;, False, &#x27;/admin/default/edit/welcome/models/db.py&#x27;), (&lt;lazyT &#x27;Menu Model&#x27;&gt;, False, &#x27;/admin/default/edit/welcome/models/menu.py&#x27;), (&lt;lazyT &#x27;Database&#x27;&gt;, False, &#x27;/welcome/appadmin/index&#x27;), (&lt;lazyT &#x27;Errors&#x27;&gt;, False, &#x27;/admin/default/errors/welcome&#x27;), (&lt;lazyT &#x27;About&#x27;&gt;, False, &#x27;/admin/default/about/welcome&#x27;)]</div></td></tr></table></div></td></tr><tr><td><div><table><tr><td><div>web2py.com</div></td></tr><tr><td><div>False</div></td></tr><tr><td><div>http://www.web2py.com</div></td></tr><tr><td><div>[(&lt;lazyT &#x27;Download&#x27;&gt;, False, &#x27;http://www.web2py.com/examples/default/download&#x27;), (&lt;lazyT &#x27;Support&#x27;&gt;, False, &#x27;http://www.web2py.com/examples/default/support&#x27;), (&lt;lazyT &#x27;Demo&#x27;&gt;, False, &#x27;http://web2py.com/demo_admin&#x27;), (&lt;lazyT &#x27;Quick Examples&#x27;&gt;, False, &#x27;http://web2py.com/examples/default/examples&#x27;), (&lt;lazyT &#x27;FAQ&#x27;&gt;, False, &#x27;http://web2py.com/AlterEgo&#x27;), (&lt;lazyT &#x27;Videos&#x27;&gt;, False, &#x27;http://www.web2py.com/examples/default/videos/&#x27;), (&lt;lazyT &#x27;Free Applications&#x27;&gt;, False, &#x27;http://web2py.com/appliances&#x27;), (&lt;lazyT &#x27;Plugins&#x27;&gt;, False, &#x27;http://web2py.com/plugins&#x27;), (&lt;lazyT &#x27;Layouts&#x27;&gt;, False, &#x27;http://web2py.com/layouts&#x27;), (&lt;lazyT &#x27;Recipes&#x27;&gt;, False, &#x27;http://web2pyslices.com/&#x27;), (&lt;lazyT &#x27;Semantic&#x27;&gt;, False, &#x27;http://web2py.com/semantic&#x27;)]</div></td></tr></table></div></td></tr><tr><td><div><table><tr><td><div>Documentation</div></td></tr><tr><td><div>False</div></td></tr><tr><td><div>http://www.web2py.com/book</div></td></tr><tr><td><div>[(&lt;lazyT &#x27;Preface&#x27;&gt;, False, &#x27;http://www.web2py.com/book/default/chapter/00&#x27;), (&lt;lazyT &#x27;Introduction&#x27;&gt;, False, &#x27;http://www.web2py.com/book/default/chapter/01&#x27;), (&lt;lazyT &#x27;Python&#x27;&gt;, False, &#x27;http://www.web2py.com/book/default/chapter/02&#x27;), (&lt;lazyT &#x27;Overview&#x27;&gt;, False, &#x27;http://www.web2py.com/book/default/chapter/03&#x27;), (&lt;lazyT &#x27;The Core&#x27;&gt;, False, &#x27;http://www.web2py.com/book/default/chapter/04&#x27;), (&lt;lazyT &#x27;The Views&#x27;&gt;, False, &#x27;http://www.web2py.com/book/default/chapter/05&#x27;), (&lt;lazyT &#x27;Database&#x27;&gt;, False, &#x27;http://www.web2py.com/book/default/chapter/06&#x27;), (&lt;lazyT &#x27;Forms and Validators&#x27;&gt;, False, &#x27;http://www.web2py.com/book/default/chapter/07&#x27;), (&lt;lazyT &#x27;Email and SMS&#x27;&gt;, False, &#x27;http://www.web2py.com/book/default/chapter/08&#x27;), (&lt;lazyT &#x27;Access Control&#x27;&gt;, False, &#x27;http://www.web2py.com/book/default/chapter/09&#x27;), (&lt;lazyT &#x27;Services&#x27;&gt;, False, &#x27;http://www.web2py.com/book/default/chapter/10&#x27;), (&lt;lazyT &#x27;Ajax Recipes&#x27;&gt;, False, &#x27;http://www.web2py.com/book/default/chapter/11&#x27;), (&lt;lazyT &#x27;Components and Plugins&#x27;&gt;, False, &#x27;http://www.web2py.com/book/default/chapter/12&#x27;), (&lt;lazyT &#x27;Deployment Recipes&#x27;&gt;, False, &#x27;http://www.web2py.com/book/default/chapter/13&#x27;), (&lt;lazyT &#x27;Other Recipes&#x27;&gt;, False, &#x27;http://www.web2py.com/book/default/chapter/14&#x27;), (&lt;lazyT &#x27;Buy this book&#x27;&gt;, False, &#x27;http://stores.lulu.com/web2py&#x27;)]</div></td></tr></table></div></td></tr><tr><td><div><table><tr><td><div>Community</div></td></tr><tr><td><div>False</div></td></tr><tr><td><div>None</div></td></tr><tr><td><div>[(&lt;lazyT &#x27;Groups&#x27;&gt;, False, &#x27;http://www.web2py.com/examples/default/usergroups&#x27;), (&lt;lazyT &#x27;Twitter&#x27;&gt;, False, &#x27;http://twitter.com/web2py&#x27;), (&lt;lazyT &#x27;Live Chat&#x27;&gt;, False, &#x27;http://webchat.freenode.net/?channels=web2py&#x27;)]</div></td></tr></table></div></td></tr><tr><td><div><table><tr><td><div>Plugins</div></td></tr><tr><td><div>False</div></td></tr><tr><td><div>None</div></td></tr><tr><td><div>[(&#x27;plugin_wiki&#x27;, False, &#x27;http://web2py.com/examples/default/download&#x27;), (&lt;lazyT &#x27;Other Plugins&#x27;&gt;, False, &#x27;http://web2py.com/plugins&#x27;), (&lt;lazyT &#x27;Layout Plugins&#x27;&gt;, False, &#x27;http://web2py.com/layouts&#x27;)]</div></td></tr></table></div></td></tr></table></div></td></tr></table></div></td></tr></table></div></td></tr><tr><td style="font-weight:bold;vertical-align:top">meta</td><td valign="top">:</td><td><div><table><tr><td style="font-weight:bold;vertical-align:top">author</td><td valign="top">:</td><td><div>Your Name &lt;you@example.com&gt;</div></td></tr><tr><td style="font-weight:bold;vertical-align:top">description</td><td valign="top">:</td><td><div>a cool new app</div></td></tr><tr><td style="font-weight:bold;vertical-align:top">generator</td><td valign="top">:</td><td><div>Web2py Web Framework</div></td></tr><tr><td style="font-weight:bold;vertical-align:top">keywords</td><td valign="top">:</td><td><div>web2py, python, framework</div></td></tr></table></div></td></tr><tr><td style="font-weight:bold;vertical-align:top">models_to_run</td><td valign="top">:</td><td><div><table><tr><td><div>^\\w+\\.py$</div></td></tr><tr><td><div>^default/\\w+\\.py$</div></td></tr><tr><td><div>^default/edit_blog/\\w+\\.py$</div></td></tr></table></div></td></tr><tr><td style="font-weight:bold;vertical-align:top">postprocessing</td><td valign="top">:</td><td><div><table></table></div></td></tr><tr><td style="font-weight:bold;vertical-align:top">session_cookie_expires</td><td valign="top">:</td><td><div>None</div></td></tr><tr><td style="font-weight:bold;vertical-align:top">session_data_name</td><td valign="top">:</td><td><div>session_data_welcome</div></td></tr><tr><td style="font-weight:bold;vertical-align:top">session_file</td><td valign="top">:</td><td><div>&lt;open file &#x27;/Users/huyheo/Documents/huy/blogging/web2py/applications/welcome/sessions/127.0.0.1-79870310-6908-4bc7-9eab-ce9785e5a6d0&#x27;, mode &#x27;rb+&#x27; at 0x111130300&gt;</div></td></tr><tr><td style="font-weight:bold;vertical-align:top">session_filename</td><td valign="top">:</td><td><div>/Users/huyheo/Documents/huy/blogging/web2py/applications/welcome/sessions/127.0.0.1-79870310-6908-4bc7-9eab-ce9785e5a6d0</div></td></tr><tr><td style="font-weight:bold;vertical-align:top">session_id</td><td valign="top">:</td><td><div>127.0.0.1-79870310-6908-4bc7-9eab-ce9785e5a6d0</div></td></tr><tr><td style="font-weight:bold;vertical-align:top">session_id_name</td><td valign="top">:</td><td><div>session_id_welcome</div></td></tr><tr><td style="font-weight:bold;vertical-align:top">session_locked</td><td valign="top">:</td><td><div>True</div></td></tr><tr><td style="font-weight:bold;vertical-align:top">session_new</td><td valign="top">:</td><td><div>False</div></td></tr><tr><td style="font-weight:bold;vertical-align:top">session_storage_type</td><td valign="top">:</td><td><div>file</div></td></tr><tr><td style="font-weight:bold;vertical-align:top">status</td><td valign="top">:</td><td><div>200</div></td></tr><tr><td style="font-weight:bold;vertical-align:top">subtitle</td><td valign="top">:</td><td><div>customize me!</div></td></tr><tr><td style="font-weight:bold;vertical-align:top">title</td><td valign="top">:</td><td><div>Welcome</div></td></tr><tr><td style="font-weight:bold;vertical-align:top">view</td><td valign="top">:</td><td><div>default/edit_blog.html</div></td></tr></table></div>'
tRp160
sS'locals'
p161
(dp162
S'item'
p163
S'<Row {\'story\': \'<h1><span style="font-size:72px"...</span></span></p>\\r\\n\', \'writer\': 2L, \'id\': 5L}>'
p164
sS'item_info'
p165
S'{\'item\': <Row {\'story\': \'<h1><span style="font-size:72px"...</span></span></p>\\r\\n\', \'writer\': 2L, \'id\': 5L}>}'
p166
sssS'traceback'
p167
S'Traceback (most recent call last):\n  File "/Users/huyheo/Documents/huy/blogging/web2py/gluon/restricted.py", line 212, in restricted\n    exec ccode in environment\n  File "/Users/huyheo/Documents/huy/blogging/web2py/applications/welcome/controllers/default.py", line 84, in <module>\n  File "/Users/huyheo/Documents/huy/blogging/web2py/gluon/globals.py", line 194, in <lambda>\n    self._caller = lambda f: f()\n  File "/Users/huyheo/Documents/huy/blogging/web2py/applications/welcome/controllers/default.py", line 53, in edit_blog\n    db(db.blog.id == int(request.args[0])).update_record(story = request.vars.editor1)\nAttributeError: \'Set\' object has no attribute \'update_record\'\n'
p168
s.