(dp1
S'output'
p2
S"<type 'exceptions.AttributeError'> 'NoneType' object has no attribute 'first_name'"
p3
sS'layer'
p4
S'/Users/mac/Documents/shareknowledge/applications/welcome/views/default/user_profile.html'
p5
sS'code'
p6
S'response.write(\'<!--[if HTML5]><![endif]-->\\n<!DOCTYPE html>\\n<!-- paulirish.com/2008/conditional-stylesheets-vs-css-hacks-answer-neither/ -->\\n<!--[if lt IE 7]><html class="ie ie6 ie-lte9 ie-lte8 ie-lte7 no-js" lang="\', escape=False)\nresponse.write(T.accepted_language or \'en\')\nresponse.write(\'"> <![endif]-->\\n<!--[if IE 7]><html class="ie ie7 ie-lte9 ie-lte8 ie-lte7 no-js" lang="\', escape=False)\nresponse.write(T.accepted_language or \'en\')\nresponse.write(\'"> <![endif]-->\\n<!--[if IE 8]><html class="ie ie8 ie-lte9 ie-lte8 no-js" lang="\', escape=False)\nresponse.write(T.accepted_language or \'en\')\nresponse.write(\'"> <![endif]-->\\n<!--[if IE 9]><html class="ie9 ie-lte9 no-js" lang="\', escape=False)\nresponse.write(T.accepted_language or \'en\')\nresponse.write(\'"> <![endif]-->\\n<!--[if (gt IE 9)|!(IE)]><!--> <html class="no-js" lang="\', escape=False)\nresponse.write(T.accepted_language or \'en\')\nresponse.write(\'"> <!--<![endif]-->\\n<head>\\n<title>\', escape=False)\nresponse.write(response.title or request.application)\nresponse.write(\'</title>\\n  <!--[if !HTML5]>\\n      <meta http-equiv="X-UA-Compatible" content="IE=edge\', escape=False)\nresponse.write(not request.is_local and \',chrome=1\' or \'\')\nresponse.write(\'">\\n  <![endif]-->\\n  <!-- www.phpied.com/conditional-comments-block-downloads/ -->\\n  <!-- Always force latest IE rendering engine\\n       (even in intranet) & Chrome Frame\\n       Remove this if you use the .htaccess -->\\n\\t   \\n  <meta charset="utf-8" />\\n\\n  <!-- http://dev.w3.org/html5/markup/meta.name.html -->\\n  <meta name="application-name" content="\', escape=False)\nresponse.write(request.application)\nresponse.write(\'" />\\n\\n  <!-- Speaking of Google, don\\\'t forget to set your site up:\\n       http://google.com/webmasters -->\\n  <meta name="google-site-verification" content="" />\\n\\n  <!--  Mobile Viewport Fix\\n        j.mp/mobileviewport & davidbcalhoun.com/2010/viewport-metatag\\n        device-width: Occupy full width of the screen in its current orientation\\n        initial-scale = 1.0 retains dimensions instead of zooming out if page height > device height\\n        user-scalable = yes allows the user to zoom in -->\\n  <meta name="viewport" content="width=device-width, initial-scale=1.0" />\\n\\n  <link rel="shortcut icon" href="\', escape=False)\nresponse.write(URL(\'static\',\'images/favicon.ico\'))\nresponse.write(\'" type="image/x-icon">\\n  <link rel="apple-touch-icon" href="\', escape=False)\nresponse.write(URL(\'static\',\'images/favicon.png\'))\nresponse.write(\'">\\n<!--google font-->\\n<!--<link href=\\\'http://fonts.googleapis.com/css?family=Roboto+Slab:100&subset=vietnamese\\\' rel=\\\'stylesheet\\\' type=\\\'text/css\\\'>-->\\n\\n<link href=\\\'http://fonts.googleapis.com/css?family=Roboto+Slab:400,300,100&subset=vietnamese\\\' rel=\\\'stylesheet\\\' type=\\\'text/css\\\'>\\n\\n  <!-- All JavaScript at the bottom, except for Modernizr which enables\\n       HTML5 elements & feature detects -->\\n  <script src="\', escape=False)\nresponse.write(URL(\'static\',\'js/modernizr.custom.js\'))\nresponse.write(\'"></script>\\n  <script src="\', escape=False)\nresponse.write(URL(\'static\',\'js/ckeditor/ckeditor.js\'))\nresponse.write(\'"></script>\\n\\n<script type="text/javascript" src="\', escape=False)\nresponse.write(URL(\'static\',\'js/tinymce/tinymce.min.js\'))\nresponse.write(\'"></script>\\n\\n<script src="//ajax.googleapis.com/ajax/libs/jquery/1.10.2/jquery.min.js"></script>\\n<script type="text/javascript">\\ntinymce.init({\\n    selector: "textarea"\\n });\\n</script>\\n\\n  <!-- include stylesheets -->\\n  \', escape=False)\nresponse.files.append(URL(\'static\',\'css/web2py.css\'))\nresponse.files.append(URL(\'static\',\'css/bootstrap.min.css\'))\nresponse.files.append(URL(\'static\',\'css/bootstrap-responsive.min.css\'))\nresponse.files.append(URL(\'static\',\'css/web2py_bootstrap.css\'))\nresponse.write(\'\\n\\n  \', escape=False)\nresponse.write(\'<script type="text/javascript"><!--\\n    // These variables are used by the web2py_ajax_init function in web2py_ajax.js (which is loaded below).\\n    var w2p_ajax_confirm_message = "\', escape=False)\nresponse.write(T(\'Are you sure you want to delete this object?\'))\nresponse.write(\'";\\n    var w2p_ajax_date_format = "\', escape=False)\nresponse.write(T(\'%Y-%m-%d\'))\nresponse.write(\'";\\n    var w2p_ajax_datetime_format = "\', escape=False)\nresponse.write(T(\'%Y-%m-%d %H:%M:%S\'))\nresponse.write(\'";\\n    var ajax_error_500 = \\\'\', escape=False)\nresponse.write(XML(T(\'An error occured, please %s the page\') % A(T(\'reload\'), _href=URL(args=request.args, vars=request.vars))))\nresponse.write("\'\\n    //--></script>\\n", escape=False)\nresponse.files.insert(0,URL(\'static\',\'js/jquery.js\'))\nresponse.files.insert(1,URL(\'static\',\'css/calendar.css\'))\nresponse.files.insert(2,URL(\'static\',\'js/calendar.js\'))\nresponse.files.insert(3,URL(\'static\',\'js/web2py.js\'))\nresponse.include_meta()\nresponse.include_files()\nresponse.write(\'\\n\', escape=False)\nresponse.write(\'\\n\\n  \', escape=False)\n# using sidebars need to know what sidebar you want to use\nleft_sidebar_enabled = globals().get(\'left_sidebar_enabled\',False)\nright_sidebar_enabled = globals().get(\'right_sidebar_enabled\',False)\nmiddle_columns = {0:\'span12\',1:\'span9\',2:\'span6\'}[\n(left_sidebar_enabled and 1 or 0)+(right_sidebar_enabled and 1 or 0)]\nresponse.write(\'\\n\\n  <!-- uncomment here to load jquery-ui\\n       <link rel="stylesheet" href="http://ajax.googleapis.com/ajax/libs/jqueryui/1.8.16/themes/base/jquery-ui.css" type="text/css" media="all" />\\n       <script src="http://ajax.googleapis.com/ajax/libs/jqueryui/1.8.16/jquery-ui.min.js" type="text/javascript"></script>\\n       uncomment to load jquery-ui //-->\\n  <noscript><link href="\', escape=False)\nresponse.write(URL(\'static\', \'css/web2py_bootstrap_nojs.css\'))\nresponse.write(\'" rel="stylesheet" type="text/css" /></noscript>\\n  \', escape=False)\nresponse.write(\'\\n</head>\\n\\n<body>\\n\\n  <!-- Navbar ================================================== -->\\n  <!-- Navbar ================================================== -->\\n  <div class="navbar navbar-inverse">\\n    <div class="flash">\', escape=False)\nresponse.write(response.flash or \'\')\nresponse.write(\'</div>\\n    <div class="navbar-inner">\\n      <div class="container">\\n        \', escape=False)\nis_mobile=request.user_agent().is_mobile\nresponse.write(\'\\n        <!-- the next tag is necessary for bootstrap menus, do not remove -->\\n        <button type="button" class="btn btn-navbar" data-toggle="collapse" data-target=".nav-collapse" style="\', escape=False)\nresponse.write(\'display:none;\' if not is_mobile else \'\')\nresponse.write(\'">\\n          <span class="icon-bar"></span>\\n          <span class="icon-bar"></span>\\n          <span class="icon-bar"></span>\\n        </button>\\n       <!-- \', escape=False)\nresponse.write(response.logo)\nresponse.write(\'-->\\n          <!-- bug of not update db when login second time with fb-->\\n          \', escape=False)\ntemp =  db(db.auth_user).select().first()\nresponse.write(\'\\n          \', escape=False)\npass\nresponse.write(\'\\n\\n        <ul id="navbar" class="nav pull-right">\\n            \', escape=False)\nif auth.user:\n    response.write(\'\\n            \', escape=False)\n    img_path =\' https://graph.facebook.com/\' + auth.user.username + \'/picture\'\n    response.write(\'\\n            <li>\\n                <!--<a href=\', escape=False)\n    response.write(URL( \'welcome/default/user_profile\'))\n    response.write(\'>-->\\n                <a id ="user_profile" href=\\\'http://localhost:8002/welcome/default/user_profile\\\' onclick="location.href=this.href+\\\'?user_id=\\\'+\', escape=False)\n    response.write(auth.user.id)\n    response.write(\'; return false;">\\n                <img border="0" src=\', escape=False)\n    response.write(img_path)\n    response.write(\' alt="Pulpit rock" width="40" height="40">\\n                </a>\\n            </li>\\n            \', escape=False)\n    pass\nresponse.write(\'\\n            \', escape=False)\nresponse.write(\'auth\' in globals() and auth.navbar(mode="dropdown") or \'\')\nresponse.write(\'\\n        </ul>\\n         <div class = "nav">\\n             <ul class = "nav">\\n        <li class="web2py-menu-first"><a  id = "logo_site" href="/welcome/default/question_list">Chuot nhat </a></li>\\n      <!--  <li class="web2py-menu-first"><input type="text" name="" style="height:30px;font-size:16pt;size=80; width: 500px"  value = "search " ></li>-->\\n                <li class="web2py-menu-first"><a id="kaka">\\n                    <style type="text/css">\\n                            td.gsc-search-button { display: none !important; }\\n                            #gsc-i-id1{\\n                            }\\n                        .gsc-input-box{\\n                         height: 30px;\\n                        }\\n\\n                    </style>\\n<script>\\n  (function() {\\n    var cx = \\\'000962600827879314668:shbqhmi-59y\\\';\\n    var gcse = document.createElement(\\\'script\\\');\\n    gcse.type = \\\'text/javascript\\\';\\n    gcse.async = true;\\n    gcse.src = (document.location.protocol == \\\'https:\\\' ? \\\'https:\\\' : \\\'http:\\\') +\\n        \\\'//www.google.com/cse/cse.js?cx=\\\' + cx;\\n    var s = document.getElementsByTagName(\\\'script\\\')[0];\\n    s.parentNode.insertBefore(gcse, s);\\n  })();\\n\\n</script>\\n<gcse:searchbox-only resultsUrl="http://localhost:8000/welcome/default/test_jquery"></gcse:searchbox-only>\\n\\n                       </a>\\n                </li>\\n               <li class="web2py-menu-first">   <a id = "post_button" href=\', escape=False)\nresponse.write(URL(\'post\'))\nresponse.write(\' rel="nofollow"> Post</a></li>\\n                 </ul>\\n             </div>\\n          <!--\\n        <div class="\', escape=False)\nresponse.write(\'nav-collapse\' if is_mobile else \'nav\')\nresponse.write(\'">\\n          \', escape=False)\nif response.menu:\n    response.write(\'\\n          \', escape=False)\n    response.write(MENU(response.menu, _class=\'mobile-menu nav\' if is_mobile else \'nav\',mobile=is_mobile,li_class=\'dropdown\',ul_class=\'dropdown-menu\'))\n    response.write(\'\\n          \', escape=False)\n    pass\nresponse.write(\'\\n        </div><!--/.nav-collapse -->\\n      </div>\\n    </div>\\n  </div><!--/top navbar -->\\n\\n  <div class="container">\\n\\n    <!-- Masthead ================================================== -->\\n    <!--\\n    <header class="mastheader row" id="header">\\n        <div class="span12">\\n            <div class="page-header">\\n                <h1>\\n                </h1>\\n            </div>\\n        </div>\\n    </header>\\n    -->\\n\\n    <section id="main" class="main row">\\n\\n\\n        <div class="span3 left-sidebar">\\n            \', escape=False)\nresponse.write(\'\\n            <!--<h3>Left Sidebar</h3>-->\\n            \', escape=False)\nresponse.write(\'\\n        </div>\\n\\n        <div class="\', escape=False)\nresponse.write(middle_columns)\nresponse.write(\'">\\n            \', escape=False)\nresponse.write(\'\\n            \', escape=False)\nresponse.write(\'\\n<script type="text/javascript">\\ntinymce.init({\\n    selector: "h1.simple_editable",\\n    inline: true,\\n    toolbar: "undo redo",\\n    menubar: false\\n});\\n\\ntinymce.init({\\n    selector: "div.simple_editable",\\n    inline: true,\\n    toolbar: "undo redo",\\n    menubar: false\\n});\\ntinymce.init({\\n    selector: "div.editable",\\n    inline: true,\\n    plugins: [\\n        "advlist autolink lists link image charmap print preview anchor",\\n        "searchreplace visualblocks code fullscreen",\\n        "insertdatetime media table contextmenu paste"\\n    ],\\n    toolbar: "undo redo | styleselect | bold italic | alignleft aligncenter alignright alignjustify | outdent indent | "\\n});\\n\\n</script>\\n\\n\\n <table class="user_brief_info">\\n     <tr>\\n         <td>\\n         <h1 class="simple_editable">\', escape=False)\nresponse.write(person_info.first_name)\nresponse.write(\'\\n         </h1>\\n         </td>\\n         <td>\\n             <p id ="edit_button" > edit</p>\\n             <p id ="save_button" hidden="yes" > save</p>\\n\\n         </td>\\n     </tr>\\n     <tr>\\n         <td>\\n         <div id = "user_sub_info" class = "simple_editable">\\n         \', escape=False)\nif person_profile:\n    response.write(\'\\n         \', escape=False)\n    response.write(XML(person_profile.sub_info))\n    response.write(\'\\n          \', escape=False)\nelse:\n    response.write(\'\\n          \', escape=False)\n    response.write(\'sub info\')\n    response.write(\'\\n          \', escape=False)\n    pass\nresponse.write(\'\\n         </div>\\n         </td>\\n     </tr>\\n </table>\\n <table>\\n     <tr>\\n         <td>\\n             \', escape=False)\nimg_path =\' https://graph.facebook.com/\' + person_info.username + \'/picture?type=large\'\nresponse.write(\'\\n             <img border="0" src=\', escape=False)\nresponse.write(img_path)\nresponse.write(\' alt="Pulpit rock" width="200" height="200">\\n         </td>\\n         <td>\\n           <div id="user_detail_info" class = "editable">\\n                \', escape=False)\nif person_profile:\n    response.write(\'\\n               \', escape=False)\n    response.write(XML(person_profile.detail_info))\n    response.write(\'\\n               \', escape=False)\nelse:\n    response.write(\'\\n               \', escape=False)\n    response.write(\'detail info\')\n    response.write(\'\\n               \', escape=False)\n    pass\nresponse.write(\'\\n           </div>\\n         </td>\\n     </tr>\\n </table>\\n\\n\', escape=False)\nif not follow_flag :\n    response.write(\'\\n<button id ="follow_button" value=\', escape=False)\n    response.write(person_info.id)\n    response.write(\' name="follow"> follow</button>\\n\', escape=False)\nelse:\n    response.write(\'\\n<button id ="unfollow_button" value=\', escape=False)\n    response.write(person_info.id)\n    response.write(\' name="follow"> unfollow</button>\\n \', escape=False)\n    pass\nresponse.write(\'\\n\\n<table>\\n    <tr>\\n        <td>\\n            \', escape=False)\nresponse.write("Quan tam")\nresponse.write(\'\\n            \', escape=False)\nresponse.write(len(followed_list))\nresponse.write(\'\\n        </td>\\n    </tr>\\n    <tr>\\n        <td>\\n            \', escape=False)\nfor follow_record in followed_list:\n    response.write(\'\\n            \', escape=False)\n    user_info = db(db.auth_user.id == follow_record.followed_user).select().first()\n    response.write(\'\\n            \', escape=False)\n    img_path =\' https://graph.facebook.com/\' + auth.user.username + \'/picture\'\n    response.write(\'\\n            <img border="0" src=\', escape=False)\n    response.write(img_path)\n    response.write(\' alt="Pulpit rock" width="40" height="40">\\n            \', escape=False)\n    pass\nresponse.write(\'\\n        </td>\\n    </tr>\\n    <tr>\\n        <td>\\n            \', escape=False)\nresponse.write("Duoc quan tam ")\nresponse.write(\'\\n            \', escape=False)\nresponse.write(len(following_list))\nresponse.write(\'\\n        </td>\\n    </tr>\\n    <tr>\\n        <td>\\n            \', escape=False)\nfor follow_record in following_list:\n    response.write(\'\\n            \', escape=False)\n    user_info = db(db.auth_user.id == follow_record.followed_user).select().first()\n    response.write(\'\\n            \', escape=False)\n    img_path =\' https://graph.facebook.com/\' + auth.user.username + \'/picture\'\n    response.write(\'\\n            <img border="0" src=\', escape=False)\n    response.write(img_path)\n    response.write(\' alt="Pulpit rock" width="40" height="40">\\n            \', escape=False)\n    pass\nresponse.write(\'\\n        </td>\\n    </tr>\\n</table>\\n\\n\\n\\n\\n<script language="javascript"><!--\\n     $(\\\'#edit_button\\\').click(function () {\\n        $("#user_sub_info").css({"backgroundColor": "white" });\\n        $("#user_detail_info").css({"backgroundColor": "white"});\\n        $(\\\'#edit_button\\\').hide();\\n        $(\\\'#save_button\\\').show();\\n        });\\n\\n     $(\\\'#save_button\\\').click(function () {\\n         user_sub_info = document.getElementById("user_sub_info");\\n          user_detail_info = document.getElementById("user_detail_info");\\n        $.ajax({\\n  type: "POST",\\n  url: "update_profile",\\n  data: {sub_if : user_sub_info.innerHTML, detail_if:user_detail_info.innerHTML},\\n  cache: false,\\n  success: function(data){\\n     $("#save_button").hide();\\n     $("#edit_button").show();\\n  }\\n});\\n        });\\n     $(\\\'#follow_button\\\').click(function () {\\n         var id = $(this).attr("value");\\n        ajax(\\\'follow_a_person?person_id=\\\'+ id, [\\\'aaaaa\\\'], \\\'follow_button\\\');\\n        });\\n     $(\\\'#unfollow_button\\\').click(function () {\\n         var id = $(this).attr("value");\\n        ajax(\\\'unfollow_a_person?person_id=\\\'+ id, [\\\'\\\'], \\\'unfollow_button\\\');\\n        });\\n//--></script>\\n\', escape=False)\nresponse.write(\'\\n            \', escape=False)\nresponse.write(\'\\n        </div>\\n\\n\\n        \', escape=False)\nif right_sidebar_enabled:\n    response.write(\'\\n\\n        <div class="span3">\\n            \', escape=False)\n    response.write(\'\\n            <h3>Right Sidebar</h3>\\n\\n            <p></p>\\n            \', escape=False)\n    response.write(\'\\n        </div>\\n        \', escape=False)\n    pass\nresponse.write(\'\\n\\n    </section><!--/main-->\\n\\n    <!-- Footer ================================================== -->\\n    <!--\\n    <div class="row">\\n        <footer class="footer span12" id="footer">\\n            <div class="footer-content">\\n                \', escape=False)\nresponse.write(\' \\n                <div class="copyright pull-left">\', escape=False)\nresponse.write(T(\'Copyright\'))\nresponse.write(\' &#169; \', escape=False)\nresponse.write(request.now.year)\nresponse.write(\'</div>\\n                <div id="poweredBy" class="pull-right">\\n                    \', escape=False)\nresponse.write(T(\'Powered by\'))\nresponse.write(\'\\n                    <a href="http://www.web2py.com/">web2py</a>\\n                </div>\\n                \', escape=False)\nresponse.write(\'\\n            </div>\\n        </footer>\\n    </div>\\n    -->\\n\\n  </div> <!-- /container -->\\n\\n  <!-- The javascript =============================================\\n       (Placed at the end of the document so the pages load faster) -->\\n  <script src="\', escape=False)\nresponse.write(URL(\'static\',\'js/bootstrap.min.js\'))\nresponse.write(\'"></script>\\n  <script src="\', escape=False)\nresponse.write(URL(\'static\',\'js/web2py_bootstrap.js\'))\nresponse.write(\'"></script>\\n  <!--[if lt IE 7 ]>\\n      <script src="\', escape=False)\nresponse.write(URL(\'static\',\'js/dd_belatedpng.js\'))\nresponse.write(\'"></script>\\n      <script> DD_belatedPNG.fix(\\\'img, .png_bg\\\'); //fix any <img> or .png_bg background-images </script>\\n      <![endif]-->\\n  \\n  \', escape=False)\nif response.google_analytics_id:\n    response.write(\'\\n  <script src="\', escape=False)\n    response.write(URL(\'static\',\'js/analytics.min.js\'))\n    response.write(\'"></script>\\n  <script type="text/javascript">\\n  analytics.initialize({\\n    \\\'Google Analytics\\\':{trackingId:\\\'\', escape=False)\n    response.write(response.google_analytics_id)\n    response.write("\'} \\n  });</script>\\n  ", escape=False)\n    pass\nresponse.write(\'\\n  <script src="\', escape=False)\nresponse.write(URL(\'static\',\'js/share.js\',vars=dict(static=URL(\'static\',\'images\'))))\nresponse.write(\'"></script>\\n</body>\\n</html>\\n\\n\', escape=False)'
p7
sS'snapshot'
p8
(dp9
S'exception'
p10
(dp11
S'__hash__'
p12
S"<method-wrapper '__hash__' of exceptions.AttributeError object>"
p13
sS'__setattr__'
p14
S"<method-wrapper '__setattr__' of exceptions.AttributeError object>"
p15
sS'__reduce_ex__'
p16
S'<built-in method __reduce_ex__ of exceptions.AttributeError object>'
p17
sS'__getslice__'
p18
S"<method-wrapper '__getslice__' of exceptions.AttributeError object>"
p19
sS'__getitem__'
p20
S"<method-wrapper '__getitem__' of exceptions.AttributeError object>"
p21
sS'__setstate__'
p22
S'<built-in method __setstate__ of exceptions.AttributeError object>'
p23
sS'args'
p24
S'("\'NoneType\' object has no attribute \'first_name\'",)'
p25
sS'__reduce__'
p26
S'<built-in method __reduce__ of exceptions.AttributeError object>'
p27
sS'__str__'
p28
S"<method-wrapper '__str__' of exceptions.AttributeError object>"
p29
sS'__format__'
p30
S'<built-in method __format__ of exceptions.AttributeError object>'
p31
sS'__getattribute__'
p32
S"<method-wrapper '__getattribute__' of exceptions.AttributeError object>"
p33
sS'__class__'
p34
S"<type 'exceptions.AttributeError'>"
p35
sS'__unicode__'
p36
S'<built-in method __unicode__ of exceptions.AttributeError object>'
p37
sS'__delattr__'
p38
S"<method-wrapper '__delattr__' of exceptions.AttributeError object>"
p39
sS'__subclasshook__'
p40
S'<built-in method __subclasshook__ of type object>'
p41
sS'__repr__'
p42
S"<method-wrapper '__repr__' of exceptions.AttributeError object>"
p43
sS'__dict__'
p44
S'{}'
p45
sS'__sizeof__'
p46
S'<built-in method __sizeof__ of exceptions.AttributeError object>'
p47
sS'__doc__'
p48
S"'Attribute not found.'"
p49
sS'__init__'
p50
S"<method-wrapper '__init__' of exceptions.AttributeError object>"
p51
sS'__new__'
p52
S'<built-in method __new__ of type object>'
p53
ssS'evalue'
p54
S"'NoneType' object has no attribute 'first_name'"
p55
sS'request'
p56
cgluon.html
XML_unpickle
p57
(S's\xe1O\x00\x00<div><table><tr><td style="font-weight:bold;vertical-align:top;">ajax</td><td style="vertical-align:top;">:</td><td><div>False</div></td></tr><tr><td style="font-weight:bold;vertical-align:top;">application</td><td style="vertical-align:top;">:</td><td><div>welcome</div></td></tr><tr><td style="font-weight:bold;vertical-align:top;">args</td><td style="vertical-align:top;">:</td><td><div><table><tr><td><div>1</div></td></tr></table></div></td></tr><tr><td style="font-weight:bold;vertical-align:top;">cid</td><td style="vertical-align:top;">:</td><td><div>None</div></td></tr><tr><td style="font-weight:bold;vertical-align:top;">client</td><td style="vertical-align:top;">:</td><td><div>127.0.0.1</div></td></tr><tr><td style="font-weight:bold;vertical-align:top;">controller</td><td style="vertical-align:top;">:</td><td><div>default</div></td></tr><tr><td style="font-weight:bold;vertical-align:top;">cookies</td><td style="vertical-align:top;">:</td><td><div><table><tr><td style="font-weight:bold;vertical-align:top;">session_id_welcome</td><td style="vertical-align:top;">:</td><td><div>127.0.0.1-2e62a8af-63af-4194-b9d8-8da41b64cf08<table><tr><td style="font-weight:bold;vertical-align:top;">comment</td><td style="vertical-align:top;">:</td><td><div></div></td></tr><tr><td style="font-weight:bold;vertical-align:top;">domain</td><td style="vertical-align:top;">:</td><td><div></div></td></tr><tr><td style="font-weight:bold;vertical-align:top;">expires</td><td style="vertical-align:top;">:</td><td><div></div></td></tr><tr><td style="font-weight:bold;vertical-align:top;">httponly</td><td style="vertical-align:top;">:</td><td><div></div></td></tr><tr><td style="font-weight:bold;vertical-align:top;">max-age</td><td style="vertical-align:top;">:</td><td><div></div></td></tr><tr><td style="font-weight:bold;vertical-align:top;">path</td><td style="vertical-align:top;">:</td><td><div></div></td></tr><tr><td style="font-weight:bold;vertical-align:top;">secure</td><td style="vertical-align:top;">:</td><td><div></div></td></tr><tr><td style="font-weight:bold;vertical-align:top;">version</td><td style="vertical-align:top;">:</td><td><div></div></td></tr></table></div></td></tr></table></div></td></tr><tr><td style="font-weight:bold;vertical-align:top;">env</td><td style="vertical-align:top;">:</td><td><div><table><tr><td style="font-weight:bold;vertical-align:top;">HTTP_ACCEPT</td><td style="vertical-align:top;">:</td><td><div>text/html,application/xhtml+xml,application/xml;q=0.9,image/webp,*/*;q=0.8</div></td></tr><tr><td style="font-weight:bold;vertical-align:top;">HTTP_ACCEPT_ENCODING</td><td style="vertical-align:top;">:</td><td><div>gzip,deflate,sdch</div></td></tr><tr><td style="font-weight:bold;vertical-align:top;">HTTP_ACCEPT_LANGUAGE</td><td style="vertical-align:top;">:</td><td><div>en-US,en;q=0.8,vi;q=0.6,ko;q=0.4</div></td></tr><tr><td style="font-weight:bold;vertical-align:top;">HTTP_CONNECTION</td><td style="vertical-align:top;">:</td><td><div>keep-alive</div></td></tr><tr><td style="font-weight:bold;vertical-align:top;">HTTP_COOKIE</td><td style="vertical-align:top;">:</td><td><div>session_id_welcome=127.0.0.1-2e62a8af-63af-4194-b9d8-8da41b64cf08</div></td></tr><tr><td style="font-weight:bold;vertical-align:top;">HTTP_HOST</td><td style="vertical-align:top;">:</td><td><div>localhost:8002</div></td></tr><tr><td style="font-weight:bold;vertical-align:top;">HTTP_REFERER</td><td style="vertical-align:top;">:</td><td><div>http://localhost:8002/welcome/default/question_list</div></td></tr><tr><td style="font-weight:bold;vertical-align:top;">HTTP_USER_AGENT</td><td style="vertical-align:top;">:</td><td><div>Mozilla/5.0 (Macintosh; Intel Mac OS X 10_9_2) AppleWebKit/537.36 (KHTML, like Gecko) Chrome/35.0.1916.153 Safari/537.36</div></td></tr><tr><td style="font-weight:bold;vertical-align:top;">PATH_INFO</td><td style="vertical-align:top;">:</td><td><div>/user_profile/1</div></td></tr><tr><td style="font-weight:bold;vertical-align:top;">QUERY_STRING</td><td style="vertical-align:top;">:</td><td><div></div></td></tr><tr><td style="font-weight:bold;vertical-align:top;">REMOTE_ADDR</td><td style="vertical-align:top;">:</td><td><div>127.0.0.1</div></td></tr><tr><td style="font-weight:bold;vertical-align:top;">REMOTE_PORT</td><td style="vertical-align:top;">:</td><td><div>49972</div></td></tr><tr><td style="font-weight:bold;vertical-align:top;">REQUEST_METHOD</td><td style="vertical-align:top;">:</td><td><div>GET</div></td></tr><tr><td style="font-weight:bold;vertical-align:top;">SCRIPT_NAME</td><td style="vertical-align:top;">:</td><td><div></div></td></tr><tr><td style="font-weight:bold;vertical-align:top;">SERVER_NAME</td><td style="vertical-align:top;">:</td><td><div>MACs-MacBook-Pro-2.local</div></td></tr><tr><td style="font-weight:bold;vertical-align:top;">SERVER_PORT</td><td style="vertical-align:top;">:</td><td><div>8002</div></td></tr><tr><td style="font-weight:bold;vertical-align:top;">SERVER_PROTOCOL</td><td style="vertical-align:top;">:</td><td><div>HTTP/1.1</div></td></tr><tr><td style="font-weight:bold;vertical-align:top;">SERVER_SOFTWARE</td><td style="vertical-align:top;">:</td><td><div>Rocket 1.2.6</div></td></tr><tr><td style="font-weight:bold;vertical-align:top;">app_folders</td><td style="vertical-align:top;">:</td><td><div>set([&#x27;/Users/mac/Documents/shareknowledge/applications/welcome/&#x27;])</div></td></tr><tr><td style="font-weight:bold;vertical-align:top;">applications_parent</td><td style="vertical-align:top;">:</td><td><div>/Users/mac/Documents/shareknowledge</div></td></tr><tr><td style="font-weight:bold;vertical-align:top;">cmd_args</td><td style="vertical-align:top;">:</td><td><div><table></table></div></td></tr><tr><td style="font-weight:bold;vertical-align:top;">cmd_options</td><td style="vertical-align:top;">:</td><td><div>&lt;Values at 0x10d788c68: {&#x27;verbose&#x27;: False, &#x27;ip&#x27;: &#x27;127.0.0.1&#x27;, &#x27;debuglevel&#x27;: 30, &#x27;with_scheduler&#x27;: False, &#x27;ips&#x27;: [&#x27;fe80::6aa8:6dff:fe31:fc9c%en1&#x27;, &#x27;192.168.1.4&#x27;], &#x27;shutdown_timeout&#x27;: 5, &#x27;taskbar&#x27;: False, &#x27;with_coverage&#x27;: False, &#x27;port&#x27;: 8002, &#x27;maxthreads&#x27;: None, &#x27;softcron&#x27;: False, &#x27;server_name&#x27;: &#x27;MACs-MacBook-Pro-2.local&#x27;, &#x27;bpython&#x27;: False, &#x27;nogui&#x27;: False, &#x27;pid_filename&#x27;: &#x27;httpserver.pid&#x27;, &#x27;extcron&#x27;: False, &#x27;runcron&#x27;: False, &#x27;run_system_tests&#x27;: False, &#x27;test&#x27;: None, &#x27;folder&#x27;: &#x27;/Users/mac/Documents/shareknowledge&#x27;, &#x27;config&#x27;: &#x27;&#x27;, &#x27;minthreads&#x27;: None, &#x27;shell&#x27;: None, &#x27;run&#x27;: &#x27;&#x27;, &#x27;log_filename&#x27;: &#x27;httpserver.log&#x27;, &#x27;profiler_dir&#x27;: None, &#x27;args&#x27;: [&#x27;&#x27;], &#x27;socket_timeout&#x27;: 5, &#x27;ssl_ca_certificate&#x27;: None, &#x27;scheduler&#x27;: None, &#x27;interfaces&#x27;: None, &#x27;ssl_private_key&#x27;: &#x27;&#x27;, &#x27;scheduler_groups&#x27;: None, &#x27;password&#x27;: &#x27;&#x27;, &#x27;request_queue_size&#x27;: 5, &#x27;ssl_certificate&#x27;: &#x27;&#x27;, &#x27;cronjob&#x27;: False, &#x27;numthreads&#x27;: None, &#x27;quiet&#x27;: False, &#x27;import_models&#x27;: False, &#x27;timeout&#x27;: 10, &#x27;plain&#x27;: False, &#x27;nobanner&#x27;: False}&gt;</div></td></tr><tr><td style="font-weight:bold;vertical-align:top;">db_sessions</td><td style="vertical-align:top;">:</td><td><div>set([])</div></td></tr><tr><td style="font-weight:bold;vertical-align:top;">debugging</td><td style="vertical-align:top;">:</td><td><div>False</div></td></tr><tr><td style="font-weight:bold;vertical-align:top;">gluon_parent</td><td style="vertical-align:top;">:</td><td><div>/Users/mac/Documents/shareknowledge</div></td></tr><tr><td style="font-weight:bold;vertical-align:top;">http_accept</td><td style="vertical-align:top;">:</td><td><div>text/html,application/xhtml+xml,application/xml;q=0.9,image/webp,*/*;q=0.8</div></td></tr><tr><td style="font-weight:bold;vertical-align:top;">http_accept_encoding</td><td style="vertical-align:top;">:</td><td><div>gzip,deflate,sdch</div></td></tr><tr><td style="font-weight:bold;vertical-align:top;">http_accept_language</td><td style="vertical-align:top;">:</td><td><div>en-US,en;q=0.8,vi;q=0.6,ko;q=0.4</div></td></tr><tr><td style="font-weight:bold;vertical-align:top;">http_connection</td><td style="vertical-align:top;">:</td><td><div>keep-alive</div></td></tr><tr><td style="font-weight:bold;vertical-align:top;">http_cookie</td><td style="vertical-align:top;">:</td><td><div>session_id_welcome=127.0.0.1-2e62a8af-63af-4194-b9d8-8da41b64cf08</div></td></tr><tr><td style="font-weight:bold;vertical-align:top;">http_host</td><td style="vertical-align:top;">:</td><td><div>localhost:8002</div></td></tr><tr><td style="font-weight:bold;vertical-align:top;">http_referer</td><td style="vertical-align:top;">:</td><td><div>http://localhost:8002/welcome/default/question_list</div></td></tr><tr><td style="font-weight:bold;vertical-align:top;">http_user_agent</td><td style="vertical-align:top;">:</td><td><div>Mozilla/5.0 (Macintosh; Intel Mac OS X 10_9_2) AppleWebKit/537.36 (KHTML, like Gecko) Chrome/35.0.1916.153 Safari/537.36</div></td></tr><tr><td style="font-weight:bold;vertical-align:top;">is_jython</td><td style="vertical-align:top;">:</td><td><div>False</div></td></tr><tr><td style="font-weight:bold;vertical-align:top;">is_pypy</td><td style="vertical-align:top;">:</td><td><div>False</div></td></tr><tr><td style="font-weight:bold;vertical-align:top;">is_source</td><td style="vertical-align:top;">:</td><td><div>True</div></td></tr><tr><td style="font-weight:bold;vertical-align:top;">local_hosts</td><td style="vertical-align:top;">:</td><td><div><table><tr><td><div>fe80::6aa8:6dff:fe31:fc9c%en1</div></td></tr><tr><td><div>::ffff:127.0.0.1</div></td></tr><tr><td><div>::1</div></td></tr><tr><td><div>192.168.1.4</div></td></tr><tr><td><div>MACs-MacBook-Pro-2.local</div></td></tr><tr><td><div>127.0.0.1</div></td></tr></table></div></td></tr><tr><td style="font-weight:bold;vertical-align:top;">path_info</td><td style="vertical-align:top;">:</td><td><div>/user_profile/1</div></td></tr><tr><td style="font-weight:bold;vertical-align:top;">query_string</td><td style="vertical-align:top;">:</td><td><div></div></td></tr><tr><td style="font-weight:bold;vertical-align:top;">remote_addr</td><td style="vertical-align:top;">:</td><td><div>127.0.0.1</div></td></tr><tr><td style="font-weight:bold;vertical-align:top;">remote_port</td><td style="vertical-align:top;">:</td><td><div>49972</div></td></tr><tr><td style="font-weight:bold;vertical-align:top;">request_method</td><td style="vertical-align:top;">:</td><td><div>GET</div></td></tr><tr><td style="font-weight:bold;vertical-align:top;">request_uri</td><td style="vertical-align:top;">:</td><td><div>/welcome/default/user_profile/1</div></td></tr><tr><td style="font-weight:bold;vertical-align:top;">script_name</td><td style="vertical-align:top;">:</td><td><div></div></td></tr><tr><td style="font-weight:bold;vertical-align:top;">server_name</td><td style="vertical-align:top;">:</td><td><div>MACs-MacBook-Pro-2.local</div></td></tr><tr><td style="font-weight:bold;vertical-align:top;">server_port</td><td style="vertical-align:top;">:</td><td><div>8002</div></td></tr><tr><td style="font-weight:bold;vertical-align:top;">server_protocol</td><td style="vertical-align:top;">:</td><td><div>HTTP/1.1</div></td></tr><tr><td style="font-weight:bold;vertical-align:top;">server_software</td><td style="vertical-align:top;">:</td><td><div>Rocket 1.2.6</div></td></tr><tr><td style="font-weight:bold;vertical-align:top;">web2py_original_uri</td><td style="vertical-align:top;">:</td><td><div>/user_profile/1</div></td></tr><tr><td style="font-weight:bold;vertical-align:top;">web2py_path</td><td style="vertical-align:top;">:</td><td><div>/Users/mac/Documents/shareknowledge</div></td></tr><tr><td style="font-weight:bold;vertical-align:top;">web2py_version</td><td style="vertical-align:top;">:</td><td><div>2.8.2-stable+timestamp.2013.11.28.13.54.07</div></td></tr><tr><td style="font-weight:bold;vertical-align:top;">wsgi.errors</td><td style="vertical-align:top;">:</td><td><div>&lt;open file &#x27;&lt;stderr&gt;&#x27;, mode &#x27;w&#x27; at 0x10c90e1e0&gt;</div></td></tr><tr><td style="font-weight:bold;vertical-align:top;">wsgi.file_wrapper</td><td style="vertical-align:top;">:</td><td><div>&lt;class wsgiref.util.FileWrapper at 0x10d4f58d8&gt;</div></td></tr><tr><td style="font-weight:bold;vertical-align:top;">wsgi.input</td><td style="vertical-align:top;">:</td><td><div>&lt;socket._fileobject object at 0x10e8ce950&gt;</div></td></tr><tr><td style="font-weight:bold;vertical-align:top;">wsgi.multiprocess</td><td style="vertical-align:top;">:</td><td><div>False</div></td></tr><tr><td style="font-weight:bold;vertical-align:top;">wsgi.multithread</td><td style="vertical-align:top;">:</td><td><div>True</div></td></tr><tr><td style="font-weight:bold;vertical-align:top;">wsgi.run_once</td><td style="vertical-align:top;">:</td><td><div>False</div></td></tr><tr><td style="font-weight:bold;vertical-align:top;">wsgi.url_scheme</td><td style="vertical-align:top;">:</td><td><div>http</div></td></tr><tr><td style="font-weight:bold;vertical-align:top;">wsgi.version</td><td style="vertical-align:top;">:</td><td><div><table><tr><td><div>1</div></td></tr><tr><td><div>0</div></td></tr></table></div></td></tr><tr><td style="font-weight:bold;vertical-align:top;">wsgi_errors</td><td style="vertical-align:top;">:</td><td><div>&lt;open file &#x27;&lt;stderr&gt;&#x27;, mode &#x27;w&#x27; at 0x10c90e1e0&gt;</div></td></tr><tr><td style="font-weight:bold;vertical-align:top;">wsgi_file_wrapper</td><td style="vertical-align:top;">:</td><td><div>&lt;class wsgiref.util.FileWrapper at 0x10d4f58d8&gt;</div></td></tr><tr><td style="font-weight:bold;vertical-align:top;">wsgi_input</td><td style="vertical-align:top;">:</td><td><div>&lt;socket._fileobject object at 0x10e8ce950&gt;</div></td></tr><tr><td style="font-weight:bold;vertical-align:top;">wsgi_multiprocess</td><td style="vertical-align:top;">:</td><td><div>False</div></td></tr><tr><td style="font-weight:bold;vertical-align:top;">wsgi_multithread</td><td style="vertical-align:top;">:</td><td><div>True</div></td></tr><tr><td style="font-weight:bold;vertical-align:top;">wsgi_run_once</td><td style="vertical-align:top;">:</td><td><div>False</div></td></tr><tr><td style="font-weight:bold;vertical-align:top;">wsgi_url_scheme</td><td style="vertical-align:top;">:</td><td><div>http</div></td></tr><tr><td style="font-weight:bold;vertical-align:top;">wsgi_version</td><td style="vertical-align:top;">:</td><td><div><table><tr><td><div>1</div></td></tr><tr><td><div>0</div></td></tr></table></div></td></tr></table></div></td></tr><tr><td style="font-weight:bold;vertical-align:top;">extension</td><td style="vertical-align:top;">:</td><td><div>html</div></td></tr><tr><td style="font-weight:bold;vertical-align:top;">folder</td><td style="vertical-align:top;">:</td><td><div>/Users/mac/Documents/shareknowledge/applications/welcome/</div></td></tr><tr><td style="font-weight:bold;vertical-align:top;">function</td><td style="vertical-align:top;">:</td><td><div>user_profile</div></td></tr><tr><td style="font-weight:bold;vertical-align:top;">global_settings</td><td style="vertical-align:top;">:</td><td><div><table><tr><td style="font-weight:bold;vertical-align:top;">app_folders</td><td style="vertical-align:top;">:</td><td><div>set([&#x27;/Users/mac/Documents/shareknowledge/applications/welcome/&#x27;])</div></td></tr><tr><td style="font-weight:bold;vertical-align:top;">applications_parent</td><td style="vertical-align:top;">:</td><td><div>/Users/mac/Documents/shareknowledge</div></td></tr><tr><td style="font-weight:bold;vertical-align:top;">cmd_args</td><td style="vertical-align:top;">:</td><td><div><table></table></div></td></tr><tr><td style="font-weight:bold;vertical-align:top;">cmd_options</td><td style="vertical-align:top;">:</td><td><div>&lt;Values at 0x10d788c68: {&#x27;verbose&#x27;: False, &#x27;ip&#x27;: &#x27;127.0.0.1&#x27;, &#x27;debuglevel&#x27;: 30, &#x27;with_scheduler&#x27;: False, &#x27;ips&#x27;: [&#x27;fe80::6aa8:6dff:fe31:fc9c%en1&#x27;, &#x27;192.168.1.4&#x27;], &#x27;shutdown_timeout&#x27;: 5, &#x27;taskbar&#x27;: False, &#x27;with_coverage&#x27;: False, &#x27;port&#x27;: 8002, &#x27;maxthreads&#x27;: None, &#x27;softcron&#x27;: False, &#x27;server_name&#x27;: &#x27;MACs-MacBook-Pro-2.local&#x27;, &#x27;bpython&#x27;: False, &#x27;nogui&#x27;: False, &#x27;pid_filename&#x27;: &#x27;httpserver.pid&#x27;, &#x27;extcron&#x27;: False, &#x27;runcron&#x27;: False, &#x27;run_system_tests&#x27;: False, &#x27;test&#x27;: None, &#x27;folder&#x27;: &#x27;/Users/mac/Documents/shareknowledge&#x27;, &#x27;config&#x27;: &#x27;&#x27;, &#x27;minthreads&#x27;: None, &#x27;shell&#x27;: None, &#x27;run&#x27;: &#x27;&#x27;, &#x27;log_filename&#x27;: &#x27;httpserver.log&#x27;, &#x27;profiler_dir&#x27;: None, &#x27;args&#x27;: [&#x27;&#x27;], &#x27;socket_timeout&#x27;: 5, &#x27;ssl_ca_certificate&#x27;: None, &#x27;scheduler&#x27;: None, &#x27;interfaces&#x27;: None, &#x27;ssl_private_key&#x27;: &#x27;&#x27;, &#x27;scheduler_groups&#x27;: None, &#x27;password&#x27;: &#x27;&#x27;, &#x27;request_queue_size&#x27;: 5, &#x27;ssl_certificate&#x27;: &#x27;&#x27;, &#x27;cronjob&#x27;: False, &#x27;numthreads&#x27;: None, &#x27;quiet&#x27;: False, &#x27;import_models&#x27;: False, &#x27;timeout&#x27;: 10, &#x27;plain&#x27;: False, &#x27;nobanner&#x27;: False}&gt;</div></td></tr><tr><td style="font-weight:bold;vertical-align:top;">db_sessions</td><td style="vertical-align:top;">:</td><td><div>set([])</div></td></tr><tr><td style="font-weight:bold;vertical-align:top;">debugging</td><td style="vertical-align:top;">:</td><td><div>False</div></td></tr><tr><td style="font-weight:bold;vertical-align:top;">gluon_parent</td><td style="vertical-align:top;">:</td><td><div>/Users/mac/Documents/shareknowledge</div></td></tr><tr><td style="font-weight:bold;vertical-align:top;">is_jython</td><td style="vertical-align:top;">:</td><td><div>False</div></td></tr><tr><td style="font-weight:bold;vertical-align:top;">is_pypy</td><td style="vertical-align:top;">:</td><td><div>False</div></td></tr><tr><td style="font-weight:bold;vertical-align:top;">is_source</td><td style="vertical-align:top;">:</td><td><div>True</div></td></tr><tr><td style="font-weight:bold;vertical-align:top;">local_hosts</td><td style="vertical-align:top;">:</td><td><div><table><tr><td><div>fe80::6aa8:6dff:fe31:fc9c%en1</div></td></tr><tr><td><div>::ffff:127.0.0.1</div></td></tr><tr><td><div>::1</div></td></tr><tr><td><div>192.168.1.4</div></td></tr><tr><td><div>MACs-MacBook-Pro-2.local</div></td></tr><tr><td><div>127.0.0.1</div></td></tr></table></div></td></tr><tr><td style="font-weight:bold;vertical-align:top;">web2py_version</td><td style="vertical-align:top;">:</td><td><div>2.8.2-stable+timestamp.2013.11.28.13.54.07</div></td></tr></table></div></td></tr><tr><td style="font-weight:bold;vertical-align:top;">is_https</td><td style="vertical-align:top;">:</td><td><div>False</div></td></tr><tr><td style="font-weight:bold;vertical-align:top;">is_local</td><td style="vertical-align:top;">:</td><td><div>True</div></td></tr><tr><td style="font-weight:bold;vertical-align:top;">is_restful</td><td style="vertical-align:top;">:</td><td><div>False</div></td></tr><tr><td style="font-weight:bold;vertical-align:top;">now</td><td style="vertical-align:top;">:</td><td><div>datetime.datetime(2014, 6, 24, 16, 48, 6, 102706)</div></td></tr><tr><td style="font-weight:bold;vertical-align:top;">url</td><td style="vertical-align:top;">:</td><td><div>/user_profile/1</div></td></tr><tr><td style="font-weight:bold;vertical-align:top;">utcnow</td><td style="vertical-align:top;">:</td><td><div>datetime.datetime(2014, 6, 24, 9, 48, 6, 102717)</div></td></tr><tr><td style="font-weight:bold;vertical-align:top;">uuid</td><td style="vertical-align:top;">:</td><td><div>welcome/127.0.0.1.2014-06-24.16-48-06.6c6d4c71-0057-46aa-b83e-144a9789b57a</div></td></tr><tr><td style="font-weight:bold;vertical-align:top;">wsgi</td><td style="vertical-align:top;">:</td><td><div>&lt;gluon.main.LazyWSGI object at 0x111bf0d90&gt;</div></td></tr></table></div>'
tRp58
sS'frames'
p59
(lp60
(dp61
S'file'
p62
S'/Users/mac/Documents/shareknowledge/gluon/restricted.py'
p63
sS'dump'
p64
(dp65
S'environment'
p66
S"{'A': <class 'gluon.html.A'>, 'ANY_OF': <class 'gluon.validators.ANY_OF'>, 'Auth': <class 'gluon.tools.Auth'>, 'B': <class 'gluon.html.B'>, 'BEAUTIFY': <class 'gluon.html.BEAUTIFY'>, 'BODY': <class 'gluon.html.BODY'>, 'BR': <class 'gluon.html.BR'>, 'BUTTON': <class 'gluon.html.BUTTON'>, 'CAT': <class 'gluon.html.CAT'>, 'CENTER': <class 'gluon.html.CENTER'>, ...}"
p67
sS'ccode'
p68
S'<code object <module> at 0x111c661b0, file "/Use...welcome/views/default/user_profile.html", line 1>'
p69
ssS'lnum'
p70
I217
sS'lines'
p71
(dp72
I212
S'    try:'
p73
sI213
S'        if isinstance(code, types.CodeType):'
p74
sI214
S'            ccode = code'
p75
sI215
S'        else:'
p76
sI216
S'            ccode = compile2(code, layer)'
p77
sI217
S'        exec ccode in environment'
p78
sI218
S'    except HTTP:'
p79
sI219
S'        raise'
p80
sI220
S'    except RestrictedError:'
p81
sI221
S'        # do not encapsulate (obfuscate) the original RestrictedError'
p82
ssS'call'
p83
S'(code=\'response.write(\\\'<!--[if HTML5]><![endif]-->\\\\n<!D..."></script>\\\\n</body>\\\\n</html>\\\\n\\\\n\\\', escape=False)\', environment={\'A\': <class \'gluon.html.A\'>, \'ANY_OF\': <class \'gluon.validators.ANY_OF\'>, \'Auth\': <class \'gluon.tools.Auth\'>, \'B\': <class \'gluon.html.B\'>, \'BEAUTIFY\': <class \'gluon.html.BEAUTIFY\'>, \'BODY\': <class \'gluon.html.BODY\'>, \'BR\': <class \'gluon.html.BR\'>, \'BUTTON\': <class \'gluon.html.BUTTON\'>, \'CAT\': <class \'gluon.html.CAT\'>, \'CENTER\': <class \'gluon.html.CENTER\'>, ...}, layer=\'/Users/mac/Documents/shareknowledge/applications/welcome/views/default/user_profile.html\')'
p84
sS'func'
p85
S'restricted'
p86
sa(dp87
g62
S'/Users/mac/Documents/shareknowledge/applications/welcome/views/default/user_profile.html'
p88
sg64
(dp89
S'td'
p90
S'undefined'
p91
ssg70
I101
sg71
(dp92
I96
S'response.write(\'\\n        </div>\\n\\n        <div class="\', escape=False)'
p93
sI97
S'response.write(middle_columns)'
p94
sI98
S'response.write(\'">\\n            \', escape=False)'
p95
sI99
S"response.write('\\n            ', escape=False)"
p96
sI100
S'response.write(\'\\n<script type="text/javascript">\\ntinymce.init({\\n    selector: "h1.simple_editable",\\n    inline: true,\\n    toolbar: "undo redo",\\n    menubar: false\\n});\\n\\ntinymce.init({\\n    selector: "div.simple_editable",\\n    inline: true,\\n    toolbar: "undo redo",\\n    menubar: false\\n});\\ntinymce.init({\\n    selector: "div.editable",\\n    inline: true,\\n    plugins: [\\n        "advlist autolink lists link image charmap print preview anchor",\\n        "searchreplace visualblocks code fullscreen",\\n        "insertdatetime media table contextmenu paste"\\n    ],\\n    toolbar: "undo redo | styleselect | bold italic | alignleft aligncenter alignright alignjustify | outdent indent | "\\n});\\n\\n</script>\\n\\n\\n <table class="user_brief_info">\\n     <tr>\\n         <td>\\n         <h1 class="simple_editable">\', escape=False)'
p97
sI101
S'response.write(person_info.first_name)'
p98
sI102
S'response.write(\'\\n         </h1>\\n         </td>\\n         <td>\\n             <p id ="edit_button" > edit</p>\\n             <p id ="save_button" hidden="yes" > save</p>\\n\\n         </td>\\n     </tr>\\n     <tr>\\n         <td>\\n         <div id = "user_sub_info" class = "simple_editable">\\n         \', escape=False)'
p99
sI103
S'if person_profile:'
p100
sI104
S"    response.write('\\n         ', escape=False)"
p101
sI105
S'    response.write(XML(person_profile.sub_info))'
p102
sI106
S"    response.write('\\n          ', escape=False)"
p103
sI107
S'else:'
p104
sI108
S"    response.write('\\n          ', escape=False)"
p105
sI109
S"    response.write('sub info')"
p106
sI110
S"    response.write('\\n          ', escape=False)"
p107
sI111
S'    pass'
p108
sI92
S"    response.write('\\n          ', escape=False)"
p109
sI93
S'    pass'
p110
sI94
S'response.write(\'\\n        </div><!--/.nav-collapse -->\\n      </div>\\n    </div>\\n  </div><!--/top navbar -->\\n\\n  <div class="container">\\n\\n    <!-- Masthead ================================================== -->\\n    <!--\\n    <header class="mastheader row" id="header">\\n        <div class="span12">\\n            <div class="page-header">\\n                <h1>\\n                </h1>\\n            </div>\\n        </div>\\n    </header>\\n    -->\\n\\n    <section id="main" class="main row">\\n\\n\\n        <div class="span3 left-sidebar">\\n            \', escape=False)'
p111
sI95
S"response.write('\\n            <!--<h3>Left Sidebar</h3>-->\\n            ', escape=False)"
p112
ssg83
S'()'
p113
sg85
S'<module>'
p114
sasS'pyver'
p115
S'Python 2.7.5: /usr/bin/python (prefix: /System/Library/Frameworks/Python.framework/Versions/2.7)'
p116
sS'session'
p117
g57
(S's-\x0c\x00\x00<div><table><tr><td style="font-weight:bold;vertical-align:top;">auth</td><td style="vertical-align:top;">:</td><td><div><table><tr><td style="font-weight:bold;vertical-align:top;">expiration</td><td style="vertical-align:top;">:</td><td><div>3600</div></td></tr><tr><td style="font-weight:bold;vertical-align:top;">hmac_key</td><td style="vertical-align:top;">:</td><td><div>8b1f7e9d-fad3-472b-96bf-9ad19ebb098f</div></td></tr><tr><td style="font-weight:bold;vertical-align:top;">last_visit</td><td style="vertical-align:top;">:</td><td><div>datetime.datetime(2014, 6, 24, 16, 48, 0, 572311)</div></td></tr><tr><td style="font-weight:bold;vertical-align:top;">remember</td><td style="vertical-align:top;">:</td><td><div>False</div></td></tr><tr><td style="font-weight:bold;vertical-align:top;">user</td><td style="vertical-align:top;">:</td><td><div><table><tr><td style="font-weight:bold;vertical-align:top;">email</td><td style="vertical-align:top;">:</td><td><div></div></td></tr><tr><td style="font-weight:bold;vertical-align:top;">first_name</td><td style="vertical-align:top;">:</td><td><div>Nguyen</div></td></tr><tr><td style="font-weight:bold;vertical-align:top;">id</td><td style="vertical-align:top;">:</td><td><div>1L</div></td></tr><tr><td style="font-weight:bold;vertical-align:top;">last_name</td><td style="vertical-align:top;">:</td><td><div>Huy</div></td></tr><tr><td style="font-weight:bold;vertical-align:top;">registration_id</td><td style="vertical-align:top;">:</td><td><div>540428388</div></td></tr><tr><td style="font-weight:bold;vertical-align:top;">username</td><td style="vertical-align:top;">:</td><td><div>540428388</div></td></tr></table></div></td></tr><tr><td style="font-weight:bold;vertical-align:top;">user_groups</td><td style="vertical-align:top;">:</td><td><div><table><tr><td style="font-weight:bold;vertical-align:top;">1</td><td style="vertical-align:top;">:</td><td><div>user_1</div></td></tr></table></div></td></tr></table></div></td></tr><tr><td style="font-weight:bold;vertical-align:top;">flash</td><td style="vertical-align:top;">:</td><td><div>None</div></td></tr><tr><td style="font-weight:bold;vertical-align:top;">redirect_uri</td><td style="vertical-align:top;">:</td><td><div>http://localhost:8002/user/login</div></td></tr><tr><td style="font-weight:bold;vertical-align:top;">tag_list_store</td><td style="vertical-align:top;">:</td><td><div><table><tr><td><div>tag1</div></td></tr><tr><td><div>tag2</div></td></tr></table></div></td></tr><tr><td style="font-weight:bold;vertical-align:top;">token</td><td style="vertical-align:top;">:</td><td><div><table><tr><td style="font-weight:bold;vertical-align:top;">access_token</td><td style="vertical-align:top;">:</td><td><div>CAADQJXsUgecBAOWZAURAsJ0eOLl4vUquVpkZCeiTyvbCD2zkzfq9mdjL1ORKdZAhDKUiuWOe9SLbTRAzDgh7SZBAiyMwqdaMPFcLBZAuXVJ8xsVYcV9yxU8ZB2PmTZCTw5edXZBky4WeWw0AGEM4c3aT3dkZBR8QB7QZCwx5XrMhMZBEibgjUbPViyq</div></td></tr><tr><td style="font-weight:bold;vertical-align:top;">expires</td><td style="vertical-align:top;">:</td><td><div>1408769024.799367</div></td></tr></table></div></td></tr></table></div>'
tRp118
sS'etype'
p119
S"<type 'exceptions.AttributeError'>"
p120
sS'date'
p121
S'Tue Jun 24 16:48:06 2014'
p122
sS'response'
p123
g57
(S's\xc23\x00\x00<div><table><tr><td style="font-weight:bold;vertical-align:top;">body</td><td style="vertical-align:top;">:</td><td><div>&lt;cStringIO.StringO object at 0x111bd6110&gt;</div></td></tr><tr><td style="font-weight:bold;vertical-align:top;">cookies</td><td style="vertical-align:top;">:</td><td><div><table><tr><td style="font-weight:bold;vertical-align:top;">session_id_welcome</td><td style="vertical-align:top;">:</td><td><div>127.0.0.1-2e62a8af-63af-4194-b9d8-8da41b64cf08<table><tr><td style="font-weight:bold;vertical-align:top;">comment</td><td style="vertical-align:top;">:</td><td><div></div></td></tr><tr><td style="font-weight:bold;vertical-align:top;">domain</td><td style="vertical-align:top;">:</td><td><div></div></td></tr><tr><td style="font-weight:bold;vertical-align:top;">expires</td><td style="vertical-align:top;">:</td><td><div></div></td></tr><tr><td style="font-weight:bold;vertical-align:top;">httponly</td><td style="vertical-align:top;">:</td><td><div></div></td></tr><tr><td style="font-weight:bold;vertical-align:top;">max-age</td><td style="vertical-align:top;">:</td><td><div></div></td></tr><tr><td style="font-weight:bold;vertical-align:top;">path</td><td style="vertical-align:top;">:</td><td><div>/</div></td></tr><tr><td style="font-weight:bold;vertical-align:top;">secure</td><td style="vertical-align:top;">:</td><td><div></div></td></tr><tr><td style="font-weight:bold;vertical-align:top;">version</td><td style="vertical-align:top;">:</td><td><div></div></td></tr></table></div></td></tr></table></div></td></tr><tr><td style="font-weight:bold;vertical-align:top;">delimiters</td><td style="vertical-align:top;">:</td><td><div><table><tr><td><div>{{</div></td></tr><tr><td><div>}}</div></td></tr></table></div></td></tr><tr><td style="font-weight:bold;vertical-align:top;">files</td><td style="vertical-align:top;">:</td><td><div><table><tr><td><div>/welcome/static/js/jquery.js</div></td></tr><tr><td><div>/welcome/static/css/calendar.css</div></td></tr><tr><td><div>/welcome/static/js/calendar.js</div></td></tr><tr><td><div>/welcome/static/js/web2py.js</div></td></tr><tr><td><div>/welcome/static/css/web2py.css</div></td></tr><tr><td><div>/welcome/static/css/bootstrap.min.css</div></td></tr><tr><td><div>/welcome/static/css/bootstrap-responsive.min.css</div></td></tr><tr><td><div>/welcome/static/css/web2py_bootstrap.css</div></td></tr></table></div></td></tr><tr><td style="font-weight:bold;vertical-align:top;">flash</td><td style="vertical-align:top;">:</td><td><div></div></td></tr><tr><td style="font-weight:bold;vertical-align:top;">generic_patterns</td><td style="vertical-align:top;">:</td><td><div><table></table></div></td></tr><tr><td style="font-weight:bold;vertical-align:top;">google_analytics_id</td><td style="vertical-align:top;">:</td><td><div>None</div></td></tr><tr><td style="font-weight:bold;vertical-align:top;">headers</td><td style="vertical-align:top;">:</td><td><div><table><tr><td style="font-weight:bold;vertical-align:top;">X-Powered-By</td><td style="vertical-align:top;">:</td><td><div>web2py</div></td></tr></table></div></td></tr><tr><td style="font-weight:bold;vertical-align:top;">logo</td><td style="vertical-align:top;">:</td><td><div><a class="brand" data-w2p_disable_with="default" href="http://www.web2py.com/"><b>web<span>2</span>py</b>&trade;&nbsp;</a></div></td></tr><tr><td style="font-weight:bold;vertical-align:top;">menu</td><td style="vertical-align:top;">:</td><td><div><table><tr><td><div><table><tr><td><div>Home</div></td></tr><tr><td><div>False</div></td></tr><tr><td><div>/</div></td></tr><tr><td><div><table></table></div></td></tr></table></div></td></tr><tr><td><div><table><tr><td><div><span class="highlighted">web2py</span></div></td></tr><tr><td><div>False</div></td></tr><tr><td><div>http://web2py.com</div></td></tr><tr><td><div><table><tr><td><div><table><tr><td><div>My Sites</div></td></tr><tr><td><div>False</div></td></tr><tr><td><div>/admin/site</div></td></tr></table></div></td></tr><tr><td><div><table><tr><td><div>This App</div></td></tr><tr><td><div>False</div></td></tr><tr><td><div>/admin/design/welcome</div></td></tr><tr><td><div>[(&lt;lazyT &#x27;Controller&#x27;&gt;, False, &#x27;/admin/edit/welcome/controllers/default.py&#x27;), (&lt;lazyT &#x27;View&#x27;&gt;, False, &#x27;/admin/edit/welcome/views/default/user_profile.html&#x27;), (&lt;lazyT &#x27;Layout&#x27;&gt;, False, &#x27;/admin/edit/welcome/views/layout.html&#x27;), (&lt;lazyT &#x27;Stylesheet&#x27;&gt;, False, &#x27;/admin/edit/welcome/static/css/web2py.css&#x27;), (&lt;lazyT &#x27;DB Model&#x27;&gt;, False, &#x27;/admin/edit/welcome/models/db.py&#x27;), (&lt;lazyT &#x27;Menu Model&#x27;&gt;, False, &#x27;/admin/edit/welcome/models/menu.py&#x27;), (&lt;lazyT &#x27;Database&#x27;&gt;, False, &#x27;/appadmin&#x27;), (&lt;lazyT &#x27;Errors&#x27;&gt;, False, &#x27;/admin/errors/welcome&#x27;), (&lt;lazyT &#x27;About&#x27;&gt;, False, &#x27;/admin/about/welcome&#x27;)]</div></td></tr></table></div></td></tr><tr><td><div><table><tr><td><div>web2py.com</div></td></tr><tr><td><div>False</div></td></tr><tr><td><div>http://www.web2py.com</div></td></tr><tr><td><div>[(&lt;lazyT &#x27;Download&#x27;&gt;, False, &#x27;http://www.web2py.com/examples/default/download&#x27;), (&lt;lazyT &#x27;Support&#x27;&gt;, False, &#x27;http://www.web2py.com/examples/default/support&#x27;), (&lt;lazyT &#x27;Demo&#x27;&gt;, False, &#x27;http://web2py.com/demo_admin&#x27;), (&lt;lazyT &#x27;Quick Examples&#x27;&gt;, False, &#x27;http://web2py.com/examples/default/examples&#x27;), (&lt;lazyT &#x27;FAQ&#x27;&gt;, False, &#x27;http://web2py.com/AlterEgo&#x27;), (&lt;lazyT &#x27;Videos&#x27;&gt;, False, &#x27;http://www.web2py.com/examples/default/videos/&#x27;), (&lt;lazyT &#x27;Free Applications&#x27;&gt;, False, &#x27;http://web2py.com/appliances&#x27;), (&lt;lazyT &#x27;Plugins&#x27;&gt;, False, &#x27;http://web2py.com/plugins&#x27;), (&lt;lazyT &#x27;Layouts&#x27;&gt;, False, &#x27;http://web2py.com/layouts&#x27;), (&lt;lazyT &#x27;Recipes&#x27;&gt;, False, &#x27;http://web2pyslices.com/&#x27;), (&lt;lazyT &#x27;Semantic&#x27;&gt;, False, &#x27;http://web2py.com/semantic&#x27;)]</div></td></tr></table></div></td></tr><tr><td><div><table><tr><td><div>Documentation</div></td></tr><tr><td><div>False</div></td></tr><tr><td><div>http://www.web2py.com/book</div></td></tr><tr><td><div>[(&lt;lazyT &#x27;Preface&#x27;&gt;, False, &#x27;http://www.web2py.com/book/default/chapter/00&#x27;), (&lt;lazyT &#x27;Introduction&#x27;&gt;, False, &#x27;http://www.web2py.com/book/default/chapter/01&#x27;), (&lt;lazyT &#x27;Python&#x27;&gt;, False, &#x27;http://www.web2py.com/book/default/chapter/02&#x27;), (&lt;lazyT &#x27;Overview&#x27;&gt;, False, &#x27;http://www.web2py.com/book/default/chapter/03&#x27;), (&lt;lazyT &#x27;The Core&#x27;&gt;, False, &#x27;http://www.web2py.com/book/default/chapter/04&#x27;), (&lt;lazyT &#x27;The Views&#x27;&gt;, False, &#x27;http://www.web2py.com/book/default/chapter/05&#x27;), (&lt;lazyT &#x27;Database&#x27;&gt;, False, &#x27;http://www.web2py.com/book/default/chapter/06&#x27;), (&lt;lazyT &#x27;Forms and Validators&#x27;&gt;, False, &#x27;http://www.web2py.com/book/default/chapter/07&#x27;), (&lt;lazyT &#x27;Email and SMS&#x27;&gt;, False, &#x27;http://www.web2py.com/book/default/chapter/08&#x27;), (&lt;lazyT &#x27;Access Control&#x27;&gt;, False, &#x27;http://www.web2py.com/book/default/chapter/09&#x27;), (&lt;lazyT &#x27;Services&#x27;&gt;, False, &#x27;http://www.web2py.com/book/default/chapter/10&#x27;), (&lt;lazyT &#x27;Ajax Recipes&#x27;&gt;, False, &#x27;http://www.web2py.com/book/default/chapter/11&#x27;), (&lt;lazyT &#x27;Components and Plugins&#x27;&gt;, False, &#x27;http://www.web2py.com/book/default/chapter/12&#x27;), (&lt;lazyT &#x27;Deployment Recipes&#x27;&gt;, False, &#x27;http://www.web2py.com/book/default/chapter/13&#x27;), (&lt;lazyT &#x27;Other Recipes&#x27;&gt;, False, &#x27;http://www.web2py.com/book/default/chapter/14&#x27;), (&lt;lazyT &#x27;Buy this book&#x27;&gt;, False, &#x27;http://stores.lulu.com/web2py&#x27;)]</div></td></tr></table></div></td></tr><tr><td><div><table><tr><td><div>Community</div></td></tr><tr><td><div>False</div></td></tr><tr><td><div>None</div></td></tr><tr><td><div>[(&lt;lazyT &#x27;Groups&#x27;&gt;, False, &#x27;http://www.web2py.com/examples/default/usergroups&#x27;), (&lt;lazyT &#x27;Twitter&#x27;&gt;, False, &#x27;http://twitter.com/web2py&#x27;), (&lt;lazyT &#x27;Live Chat&#x27;&gt;, False, &#x27;http://webchat.freenode.net/?channels=web2py&#x27;)]</div></td></tr></table></div></td></tr><tr><td><div><table><tr><td><div>Plugins</div></td></tr><tr><td><div>False</div></td></tr><tr><td><div>None</div></td></tr><tr><td><div>[(&#x27;plugin_wiki&#x27;, False, &#x27;http://web2py.com/examples/default/download&#x27;), (&lt;lazyT &#x27;Other Plugins&#x27;&gt;, False, &#x27;http://web2py.com/plugins&#x27;), (&lt;lazyT &#x27;Layout Plugins&#x27;&gt;, False, &#x27;http://web2py.com/layouts&#x27;)]</div></td></tr></table></div></td></tr></table></div></td></tr></table></div></td></tr></table></div></td></tr><tr><td style="font-weight:bold;vertical-align:top;">meta</td><td style="vertical-align:top;">:</td><td><div><table><tr><td style="font-weight:bold;vertical-align:top;">author</td><td style="vertical-align:top;">:</td><td><div>Your Name &lt;you@example.com&gt;</div></td></tr><tr><td style="font-weight:bold;vertical-align:top;">description</td><td style="vertical-align:top;">:</td><td><div>a cool new app</div></td></tr><tr><td style="font-weight:bold;vertical-align:top;">generator</td><td style="vertical-align:top;">:</td><td><div>Web2py Web Framework</div></td></tr><tr><td style="font-weight:bold;vertical-align:top;">keywords</td><td style="vertical-align:top;">:</td><td><div>web2py, python, framework</div></td></tr></table></div></td></tr><tr><td style="font-weight:bold;vertical-align:top;">models_to_run</td><td style="vertical-align:top;">:</td><td><div><table><tr><td><div>^\\w+\\.py$</div></td></tr><tr><td><div>^default/\\w+\\.py$</div></td></tr><tr><td><div>^default/user_profile/\\w+\\.py$</div></td></tr></table></div></td></tr><tr><td style="font-weight:bold;vertical-align:top;">postprocessing</td><td style="vertical-align:top;">:</td><td><div><table></table></div></td></tr><tr><td style="font-weight:bold;vertical-align:top;">session_client</td><td style="vertical-align:top;">:</td><td><div>127.0.0.1</div></td></tr><tr><td style="font-weight:bold;vertical-align:top;">session_cookie_compression_level</td><td style="vertical-align:top;">:</td><td><div>None</div></td></tr><tr><td style="font-weight:bold;vertical-align:top;">session_cookie_expires</td><td style="vertical-align:top;">:</td><td><div>None</div></td></tr><tr><td style="font-weight:bold;vertical-align:top;">session_cookie_key</td><td style="vertical-align:top;">:</td><td><div>None</div></td></tr><tr><td style="font-weight:bold;vertical-align:top;">session_data_name</td><td style="vertical-align:top;">:</td><td><div>session_data_welcome</div></td></tr><tr><td style="font-weight:bold;vertical-align:top;">session_file</td><td style="vertical-align:top;">:</td><td><div>&lt;open file &#x27;/Users/mac/Documents/shareknowledge/applications/welcome/sessions/127.0.0.1-2e62a8af-63af-4194-b9d8-8da41b64cf08&#x27;, mode &#x27;rb+&#x27; at 0x111a52a50&gt;</div></td></tr><tr><td style="font-weight:bold;vertical-align:top;">session_filename</td><td style="vertical-align:top;">:</td><td><div>/Users/mac/Documents/shareknowledge/applications/welcome/sessions/127.0.0.1-2e62a8af-63af-4194-b9d8-8da41b64cf08</div></td></tr><tr><td style="font-weight:bold;vertical-align:top;">session_hash</td><td style="vertical-align:top;">:</td><td><div>424381f984749e9db847b10c54dc5395</div></td></tr><tr><td style="font-weight:bold;vertical-align:top;">session_id</td><td style="vertical-align:top;">:</td><td><div>127.0.0.1-2e62a8af-63af-4194-b9d8-8da41b64cf08</div></td></tr><tr><td style="font-weight:bold;vertical-align:top;">session_id_name</td><td style="vertical-align:top;">:</td><td><div>session_id_welcome</div></td></tr><tr><td style="font-weight:bold;vertical-align:top;">session_locked</td><td style="vertical-align:top;">:</td><td><div>True</div></td></tr><tr><td style="font-weight:bold;vertical-align:top;">session_masterapp</td><td style="vertical-align:top;">:</td><td><div>welcome</div></td></tr><tr><td style="font-weight:bold;vertical-align:top;">session_new</td><td style="vertical-align:top;">:</td><td><div>False</div></td></tr><tr><td style="font-weight:bold;vertical-align:top;">session_storage_type</td><td style="vertical-align:top;">:</td><td><div>file</div></td></tr><tr><td style="font-weight:bold;vertical-align:top;">status</td><td style="vertical-align:top;">:</td><td><div>200</div></td></tr><tr><td style="font-weight:bold;vertical-align:top;">subtitle</td><td style="vertical-align:top;">:</td><td><div>customize me!</div></td></tr><tr><td style="font-weight:bold;vertical-align:top;">title</td><td style="vertical-align:top;">:</td><td><div>Welcome</div></td></tr><tr><td style="font-weight:bold;vertical-align:top;">view</td><td style="vertical-align:top;">:</td><td><div>default/user_profile.html</div></td></tr></table></div>'
tRp124
sS'locals'
p125
(dp126
S'Service'
p127
S"<class 'gluon.tools.Service'>"
p128
sS'OBJECT'
p129
S"<class 'gluon.html.OBJECT'>"
p130
sS'SQLDB'
p131
S"<class 'gluon.dal.DAL'>"
p132
sg117
S"<Storage {'token': {'access_token': 'CAADQJXsUge...'user_1'}}>, 'tag_list_store': ['tag1', 'tag2']}>"
p133
sS'LINK'
p134
S"<class 'gluon.html.LINK'>"
p135
sS'BR'
p136
S"<class 'gluon.html.BR'>"
p137
sS'local_import'
p138
S'<function <lambda>>'
p139
sS'OPTGROUP'
p140
S"<class 'gluon.html.OPTGROUP'>"
p141
sS'__package__'
p142
S'None'
p143
sS'PRE'
p144
S"<class 'gluon.html.PRE'>"
p145
sS'IS_INT_IN_RANGE'
p146
S"<class 'gluon.validators.IS_INT_IN_RANGE'>"
p147
sS'left_sidebar_enabled'
p148
S'False'
p149
sS'IS_LOWER'
p150
S"<class 'gluon.validators.IS_LOWER'>"
p151
sS'IS_STRONG'
p152
S"<class 'gluon.validators.IS_STRONG'>"
p153
sS'Recaptcha'
p154
S"<class 'gluon.tools.Recaptcha'>"
p155
sS'cache'
p156
S'<gluon.cache.Cache object>'
p157
sS'IS_IN_DB'
p158
S"<class 'gluon.validators.IS_IN_DB'>"
p159
sS'TAG'
p160
S'<gluon.html.__TAG__ object>'
p161
sS'SQLField'
p162
S"<class 'gluon.dal.Field'>"
p163
sS'mail'
p164
S'<gluon.tools.Mail object>'
p165
sS'GraphAPI'
p166
S"<class 'facebook.GraphAPI'>"
p167
sS'BODY'
p168
S"<class 'gluon.html.BODY'>"
p169
sS'IS_DATE_IN_RANGE'
p170
S"<class 'gluon.validators.IS_DATE_IN_RANGE'>"
p171
sS'IFRAME'
p172
S"<class 'gluon.html.IFRAME'>"
p173
sS'URL'
p174
S'<function URL>'
p175
sS'__file__'
p176
S"'/Users/mac/Documents/shareknowledge/applications/welcome/views/default/user_profile.html'"
p177
sS'db'
p178
S'<DAL uri="sqlite://storage.sqlite">'
p179
sS'auth'
p180
S'<gluon.tools.Auth object>'
p181
sS'P'
S"<class 'gluon.html.P'>"
p182
sS'follow_flag'
p183
g149
sS'TFOOT'
p184
S"<class 'gluon.html.TFOOT'>"
p185
sS'XHTML'
p186
S"<class 'gluon.html.XHTML'>"
p187
sS'ON'
p188
S'True'
p189
sS'OL'
p190
S"<class 'gluon.html.OL'>"
p191
sS'IS_JSON'
p192
S"<class 'gluon.validators.IS_JSON'>"
p193
sS'TEXTAREA'
p194
S"<class 'gluon.html.TEXTAREA'>"
p195
sS'MENU'
p196
S"<class 'gluon.html.MENU'>"
p197
sS'IS_IMAGE'
p198
S"<class 'gluon.validators.IS_IMAGE'>"
p199
sS'path'
p200
S"'/Users/mac/Documents/shareknowledge/applications/welcome/modules'"
p201
sS'EM'
p202
S"<class 'gluon.html.EM'>"
p203
sS'CODE'
p204
S"<class 'gluon.html.CODE'>"
p205
sS'HTTP'
p206
S"<class 'gluon.http.HTTP'>"
p207
sS'img_path'
p208
S"' https://graph.facebook.com/540428388/picture'"
p209
sS'HR'
p210
S"<class 'gluon.html.HR'>"
p211
sS'IS_DATETIME'
p212
S"<class 'gluon.validators.IS_DATETIME'>"
p213
sS'STYLE'
p214
S"<class 'gluon.html.STYLE'>"
p215
sS'LABEL'
p216
S"<class 'gluon.html.LABEL'>"
p217
sS'CLEANUP'
p218
S"<class 'gluon.validators.CLEANUP'>"
p219
sS'SELECT'
p220
S"<class 'gluon.html.SELECT'>"
p221
sS'STRONG'
p222
S"<class 'gluon.html.STRONG'>"
p223
sS'CENTER'
p224
S"<class 'gluon.html.CENTER'>"
p225
sS'prettydate'
p226
S'<function prettydate>'
p227
sS'OAuthAccount'
p228
S"<class 'gluon.contrib.login_methods.oauth20_account.OAuthAccount'>"
p229
sS'Crud'
p230
S"<class 'gluon.tools.Crud'>"
p231
sS'Auth'
p232
S"<class 'gluon.tools.Auth'>"
p233
sS'COL'
p234
S"<class 'gluon.html.COL'>"
p235
sS'current'
p236
S'<thread._local object>'
p237
sS'__builtins__'
p238
S"{'ArithmeticError': <type 'exceptions.ArithmeticError'>, 'AssertionError': <type 'exceptions.AssertionError'>, 'AttributeError': <type 'exceptions.AttributeError'>, 'BaseException': <type 'exceptions.BaseException'>, 'BufferError': <type 'exceptions.BufferError'>, 'BytesWarning': <type 'exceptions.BytesWarning'>, 'DeprecationWarning': <type 'exceptions.DeprecationWarning'>, 'EOFError': <type 'exceptions.EOFError'>, 'Ellipsis': Ellipsis, 'EnvironmentError': <type 'exceptions.EnvironmentError'>, ...}"
p239
sS'HTML'
p240
S"<class 'gluon.html.HTML'>"
p241
sS'SQLFORM'
p242
S"<class 'gluon.sqlhtml.SQLFORM'>"
p243
sS'LOAD'
p244
S'<function LOAD>'
p245
sS'redirect'
p246
S'<function redirect>'
p247
sS'FIELDSET'
p248
S"<class 'gluon.html.FIELDSET'>"
p249
sS'IS_EQUAL_TO'
p250
S"<class 'gluon.validators.IS_EQUAL_TO'>"
p251
sS'embed64'
p252
S'<function embed64>'
p253
sS'GraphAPIError'
p254
S"<class 'facebook.GraphAPIError'>"
p255
sS'IS_LIST_OF'
p256
S"<class 'gluon.validators.IS_LIST_OF'>"
p257
sS'INPUT'
p258
S"<class 'gluon.html.INPUT'>"
p259
sS'EMBED'
p260
S"<class 'gluon.html.EMBED'>"
p261
sS'_'
S'<function _>'
p262
sS'person_info'
p263
S'None'
p264
sS'H2'
p265
S"<class 'gluon.html.H2'>"
p266
sS'H3'
p267
S"<class 'gluon.html.H3'>"
p268
sS'BUTTON'
p269
S"<class 'gluon.html.BUTTON'>"
p270
sS'H1'
p271
S"<class 'gluon.html.H1'>"
p272
sS'H6'
p273
S"<class 'gluon.html.H6'>"
p274
sS'H4'
p275
S"<class 'gluon.html.H4'>"
p276
sS'H5'
p277
S"<class 'gluon.html.H5'>"
p278
sS'UL'
p279
S"<class 'gluon.html.UL'>"
p280
sS'IS_UPPER'
p281
S"<class 'gluon.validators.IS_UPPER'>"
p282
sS'xmlescape'
p283
S'<function xmlescape>'
p284
sS'IS_TIME'
p285
S"<class 'gluon.validators.IS_TIME'>"
p286
sS'os'
p287
S"<module 'os' from '/System/Library/Frameworks/Python.framework/Versions/2.7/lib/python2.7/os.pyc'>"
p288
sS'OPTION'
p289
S"<class 'gluon.html.OPTION'>"
p290
sS'TITLE'
p291
S"<class 'gluon.html.TITLE'>"
p292
sS'CRYPT'
p293
S"<class 'gluon.validators.CRYPT'>"
p294
sS'IS_EMPTY_OR'
p295
S"<class 'gluon.validators.IS_EMPTY_OR'>"
p296
sS'MARKMIN'
p297
S"<class 'gluon.html.MARKMIN'>"
p298
sS'__name__'
p299
S"'__restricted__'"
p300
sS'person_profile'
p301
S'None'
p302
sS'auth_table'
p303
S'<Table auth_user (id,first_name,last_name,email,username,password,registration_id)>'
p304
sS'service'
p305
S'<gluon.tools.Service object>'
p306
sS'SCRIPT'
p307
S"<class 'gluon.html.SCRIPT'>"
p308
sS'following_list'
p309
S'<Rows (0)>'
p310
sS'geocode'
p311
S'<function geocode>'
p312
sS'is_mobile'
p313
g149
sS'FaceBookAccount'
p314
S"<class '__restricted__.FaceBookAccount'>"
p315
sS'TABLE'
p316
S"<class 'gluon.html.TABLE'>"
p317
sS'IS_IPV4'
p318
S"<class 'gluon.validators.IS_IPV4'>"
p319
sS'IS_LENGTH'
p320
S"<class 'gluon.validators.IS_LENGTH'>"
p321
sS'IS_IPV6'
p322
S"<class 'gluon.validators.IS_IPV6'>"
p323
sS'XML'
p324
S"<class 'gluon.html.XML'>"
p325
sS'Wiki'
p326
S"<class 'gluon.tools.Wiki'>"
p327
sS'B'
S"<class 'gluon.html.B'>"
p328
sS'IMG'
p329
S"<class 'gluon.html.IMG'>"
p330
sS'SQLTABLE'
p331
S"<class 'gluon.sqlhtml.SQLTABLE'>"
p332
sS'IS_MATCH'
p333
S"<class 'gluon.validators.IS_MATCH'>"
p334
sS'IS_ALPHANUMERIC'
p335
S"<class 'gluon.validators.IS_ALPHANUMERIC'>"
p336
sS'followed_list'
p337
S'<Rows (0)>'
p338
sS'SPAN'
p339
S"<class 'gluon.html.SPAN'>"
p340
sS'temp'
p341
S"<Row {'username': '540428388', 'first_name': 'Ng...ne, 'registration_id': '540428388', 'email': ''}>"
p342
sS'IS_IPADDRESS'
p343
S"<class 'gluon.validators.IS_IPADDRESS'>"
p344
sS'IS_SLUG'
p345
S"<class 'gluon.validators.IS_SLUG'>"
p346
sS'BEAUTIFY'
p347
S"<class 'gluon.html.BEAUTIFY'>"
p348
sS'META'
p349
S"<class 'gluon.html.META'>"
p350
sS'fetch'
p351
S'<function fetch>'
p352
sS'IS_DATE'
p353
S"<class 'gluon.validators.IS_DATE'>"
p354
sS'IS_EMAIL'
p355
S"<class 'gluon.validators.IS_EMAIL'>"
p356
sS'IS_NOT_EMPTY'
p357
S"<class 'gluon.validators.IS_NOT_EMPTY'>"
p358
sS'IS_FLOAT_IN_RANGE'
p359
S"<class 'gluon.validators.IS_FLOAT_IN_RANGE'>"
p360
sS'TBODY'
p361
S"<class 'gluon.html.TBODY'>"
p362
sS'CAT'
p363
S"<class 'gluon.html.CAT'>"
p364
sS'Field'
p365
S"<class 'gluon.dal.Field'>"
p366
sS'IS_LIST_OF_EMAILS'
p367
S"<class 'gluon.validators.IS_LIST_OF_EMAILS'>"
p368
sS'Mail'
p369
S"<class 'gluon.tools.Mail'>"
p370
sS'middle_columns'
p371
S"'span12'"
p372
sS'DIV'
p373
S"<class 'gluon.html.DIV'>"
p374
sS'LEGEND'
p375
S"<class 'gluon.html.LEGEND'>"
p376
sS'COLGROUP'
p377
S"<class 'gluon.html.COLGROUP'>"
p378
sS'DAL'
p379
S"<class 'gluon.dal.DAL'>"
p380
sS'TT'
p381
S"<class 'gluon.html.TT'>"
p382
sS'TR'
p383
S"<class 'gluon.html.TR'>"
p384
sS'LI'
p385
S"<class 'gluon.html.LI'>"
p386
sS'right_sidebar_enabled'
p387
g149
sS'getGraph'
p388
S'<function getGraph>'
p389
sS'TH'
p390
S"<class 'gluon.html.TH'>"
p391
sS'TD'
p392
S"<class 'gluon.html.TD'>"
p393
sS'PluginManager'
p394
S"<class 'gluon.tools.PluginManager'>"
p395
sS'IS_URL'
p396
S"<class 'gluon.validators.IS_URL'>"
p397
sS'A'
S"<class 'gluon.html.A'>"
p398
sS'HEAD'
p399
S"<class 'gluon.html.HEAD'>"
p400
sS'IS_DATETIME_IN_RANGE'
p401
S"<class 'gluon.validators.IS_DATETIME_IN_RANGE'>"
p402
sS'FORM'
p403
S"<class 'gluon.html.FORM'>"
p404
sS'I'
S"<class 'gluon.html.I'>"
p405
sS'crud'
p406
S'<gluon.tools.Crud object>'
p407
sS'DEVELOPMENT_MENU'
p408
g189
sS'sys'
p409
S"<module 'sys' (built-in)>"
p410
sS'IS_NOT_IN_DB'
p411
S"<class 'gluon.validators.IS_NOT_IN_DB'>"
p412
sg123
S"<Storage {'body': <cStringIO.StringO object at 0...111bf5e60>, 'view': 'default/user_profile.html'}>"
p413
sS'THEAD'
p414
S"<class 'gluon.html.THEAD'>"
p415
sS'ANY_OF'
p416
S"<class 'gluon.validators.ANY_OF'>"
p417
sS'IS_NULL_OR'
p418
S"<class 'gluon.validators.IS_EMPTY_OR'>"
p419
sg56
S"<Storage {'_vars': <Storage {}>, 'function': 'us...Documents/shareknowledge/applications/welcome/'}>"
p420
sS'IS_EXPR'
p421
S"<class 'gluon.validators.IS_EXPR'>"
p422
sS'T'
S'<gluon.languages.translator object>'
p423
sS'IS_IN_SET'
p424
S"<class 'gluon.validators.IS_IN_SET'>"
p425
sS'IS_UPLOAD_FILENAME'
p426
S"<class 'gluon.validators.IS_UPLOAD_FILENAME'>"
p427
sS'IS_DECIMAL_IN_RANGE'
p428
S"<class 'gluon.validators.IS_DECIMAL_IN_RANGE'>"
p429
sssS'traceback'
p430
S'Traceback (most recent call last):\n  File "/Users/mac/Documents/shareknowledge/gluon/restricted.py", line 217, in restricted\n    exec ccode in environment\n  File "/Users/mac/Documents/shareknowledge/applications/welcome/views/default/user_profile.html", line 101, in <module>\n    <td>\nAttributeError: \'NoneType\' object has no attribute \'first_name\'\n'
p431
s.