(dp1
S'output'
p2
S"<class 'urllib2.URLError'> <urlopen error [Errno 8] _ssl.c:504: EOF occurred in violation of protocol>"
p3
sS'layer'
p4
S'/Users/huyheo/Documents/huy/blogging/web2py/applications/welcome/controllers/default.py'
p5
sS'code'
p6
S'# -*- coding: utf-8 -*-\n# this file is released under public domain and you can use without limitations\n\n#########################################################################\n## This is a samples controller\n## - index is the default action of any application\n## - user is required for authentication and authorization\n## - download is for downloading files uploaded in the db (does streaming)\n## - call exposes all registered services (none by default)\n#########################################################################\n\nimport json\nimport logging\n\nlog = logging.getLogger("h")\nlog.setLevel(logging.DEBUG)\n\nfrom ConstantDefinition import *\ntry:\n    import json\nexcept ImportError:\n    from gluon.contrib import simplejson as json\nfrom facebook import GraphAPI, GraphAPIError\nfrom gluon.contrib.login_methods.oauth20_account import OAuthAccount\n\n## extend the OAUthAccount class\nclass FaceBookAccount(OAuthAccount):\n    """OAuth impl for FaceBook"""\n    AUTH_URL="https://graph.facebook.com/oauth/authorize"\n    TOKEN_URL="https://graph.facebook.com/oauth/access_token"\n\n    def __init__(self):\n        OAuthAccount.__init__(self, None, "248577781948157", "a5abf06a362c8f0fa4cf5da339906185",\n                              self.AUTH_URL, self.TOKEN_URL,\n                              scope=\'email,user_about_me,user_activities, user_birthday, user_education_history, user_groups, user_hometown, user_interests, user_likes, user_location, user_relationships, user_relationship_details, user_religion_politics, user_subscriptions, user_work_history, user_photos, user_status, user_videos, publish_actions, friends_hometown, friends_location,friends_photos\',\n                              state="auth_provider=facebook",\n                              display=\'popup\')\n        self.graph = None\n\n\n\n## use the above class to build a new login form\nauth.settings.login_form=FaceBookAccount()\n\n\n\ndef test_jquery():\n    return dict()\ndef test_tinyMCE():\n    return dict()\n\ndef test_facebook():\n    return dict()\n\ndef user():\n    return dict(form = auth())\n\ndef index():\n    """\n    example action using the internationalization operator T and flash\n    rendered by views/default/index.html or views/generic.html\n\n    if you need a simple wiki simple replace the two lines below with:\n    return auth.wiki()\n    """\n    #redirect(URL(r = request, f= \'blog\', args = 3))\n    user = auth.user\n    print user\n    return dict()\n\ndef post_question():\n    data_group = [{\'type\':\'now\',"data":""},{\'type\':\'future\',"data":""}]\n    return json.dumps(data_group)\n\n\n\n\ndef article():\n    """\n    Display blog by id\n    """\n    log.info("request.vars = %s", request.args[0])\n    log.info("request.vars = %s",request.vars)\n\n\n\n    if request.args[0] == \'post_comment\':\n        log.info(\'post a comment\')\n        post_comment(request.vars.questionId, request.vars.editor1, auth.user.id)\n        redirect(URL(r = request, f= \'article\', args = request.vars.questionId))\n\n    else:\n        log.info(\'show article with comment\')\n        log.info(\'id = %s\', request.args[0])\n\n        try:\n            question = db(db.question_tbl.id == int(request.args[0])).select()[0]\n        except:\n            log.error(\'cant query a blog from db\')\n            question = None\n        comment_list = show_question(request.args[0])\n\n        return dict(item = question, comment_list = comment_list)\n\n\ndef show_question(question_id):\n\n    comment_list = db(db.comment_tbl.question_info == question_id).select()\n    return  comment_list\n\n\ndef post_comment(question_id, comment_info, user_id):\n    log.info("post_comment")\n\n    log.info("session.user = %s", auth.user)\n    log.info("auth.user.id = %s", user_id)\n\n\n\n    try:\n        comment_id = db.comment_tbl.insert(comment_info = comment_info,\n                                question_info = question_id,\n                                author_info = user_id\n                                )\n        log.info(\'successfully create a comment_tbl\')\n\n\n    except:\n        log.error(\'cant create comment_tbl\')\n\n\n@auth.requires_login()\ndef edit_article():\n    """\n    Edit blog\n    """\n    log.info("edit artchile")\n    log.info("request.vars 0= %s", request.args[0])\n    log.info("request.vars = %s", request.args)\n    id_info = request.args[0]\n\n    article_class_list = db(db.article_tag).select()\n    log.info("article_class = %s", article_class_list)\n\n    try:\n        blog_item = db(db.blog.id == int(id_info)).select()[0]\n    except:\n        log.error(\'cant query a blog from db\')\n        blog_item = None\n\n\n\n    if request.vars.editor1:\n        article_id = get_article_id(request.vars.article_class)\n        log.info("article-id = %s", article_id)\n        id =db(db.blog.id == int(request.args[0])).update(\n            article_type = article_id,\n            article_header = request.vars.article_header,\n            article_introduction = request.vars.article_introduction,\n            story = request.vars.editor1\n        )\n        redirect(URL(r = request, f= \'article\', args = [request.args[0]]))\n\n    log.info("blog_item = %s",blog_item)\n    return dict(article = blog_item, article_class_list = article_class_list)\n\n        \ndef delete_article():\n    selection = request.vars\n    log.info(\'selection = %s\', selection[\'selection\'])\n    log.info(\'id = %s\', request.args[0])\n    id_info = request.args[0]\n    if selection[\'selection\'] == "YES":\n        log.info("delete post")\n        db(db.question_tbl.id == int(request.args[0])).delete()\n        redirect(URL(r = request, f= \'article_list\'))\n    elif selection[\'selection\'] == "NO":\n        redirect(URL(r = request, f= \'article\', args = [request.args[0]]))\n    return dict()\n\ndef article_list():\n    items= []\n\n    try:\n        items = db(db.question_tbl).select()\n\n    except:\n        log.error(\'cant query data from db\')\n\n    for item in items:\n        log.info(\'items = %s\',item)\n        comment_count = db(db.comment_tbl.id == item.id).select()\n        log.info(\'comment_count = %d\', len(comment_count))\n        tag_list = db(db.tag_tbl.question_info ==item.id).select()\n        log.info(\'tag_list = %d\', len(tag_list))\n        for tag in tag_list:\n            tag_name = db(db.article_tag.id == tag.tag_info).select()[0]\n            log.info(\'tag_name = %s\', tag_name)\n    return dict(items= items)\n\ndef get_header(text):\n    """\n        get header of article\n    """\n    header_position =text.find("<p>&nbsp;</p>")\n    log.info("header_position = %d", header_position)\n    header_text =  request.vars.editor1[:header_position]\n    return header_text\n\n\ndef post_article_class():\n    log.info("request.vars = %s",request.vars.article_class)\n    article_classes = request.vars.article_class\n    article_class_list = db(db.article_class).select()\n    log.info("article = %s ",article_class_list )\n\n\n    result= ""\n    if len(article_classes):\n        for item in article_classes:\n            log.info("item = %s", item)\n            try:\n                db(db.article_class.id == article_class_list[article_classes.index(item)].id).update(name=item)\n            except:\n                log.error("database error")\n                result = "failure"\n    else:\n        log.error("no infor about article class")\n\n    result = "update article class successfully"\n\n    return dict(result = result)\n\n\n\n\ndef article_class():\n    """\n        Create, change , update article_class\n    """\n    article_class_list = db(db.article_class).select()\n    log.info("article_class = %s", article_class_list.__doc__ )\n\n    if len(article_class_list) > 0:\n            log.info(" article class is existed..display it")\n    else:\n        log.info("create database:w")\n        #create database\n        db.article_class.insert(name ="")\n        db.article_class.insert(name ="")\n        db.article_class.insert(name ="")\n        db.article_class.insert(name ="")\n\n    article_class_list = db(db.article_class).select()\n    log.info("article_class = %s", article_class_list )\n    return dict(article_class_list = article_class_list)\n\ndef get_article_id(name):\n    """\n    return id\n    """\n    article_class_list = db(db.article_tag).select()\n    log.info("article_class = %s", article_class_list)\n    for item in article_class_list:\n        if item.name == name:\n            return item.id\n    return False;\n\n\n@auth.requires_login()\ndef post():\n    article_tag_list = db(db.article_tag).select()\n    log.info("article_tag = %s", article_tag_list)\n\n    return dict(article_tag_list =article_tag_list )\n\n\n@auth.requires_login()\ndef post_article():\n    log.info("post")\n    log.info("request.vars = %s",request.vars)\n    article_class = request.vars.article_class\n    header_text = request.vars.article_header\n\n    content_text = request.vars.editor1\n\n    log.info("session.user = %s", auth.user)\n    log.info("header_text = %s", header_text)\n    log.info("auth.user.id = %s", auth.user.id)\n\n\n    articleId = get_article_id(article_class)\n\n    if articleId == False:\n        log.error(\'cant get article id\')\n    """\n    question_tbl_list= db(db.question_tbl).select()\n    log.info("question_tbl_list = %s", question_tbl_list)\n    """\n    question_id =""\n\n    try:\n        question_id = db.question_tbl.insert(story = content_text,\n                                article_header = header_text,\n                                writer = auth.user.id)\n        log.info(\'successfully create a question_tbl\')\n\n\n    except:\n        log.error(\'cant create question_tbl\')\n    try:\n        tag_id = db.tag_tbl.insert(tag_info = articleId,\n                            question_info = id_temp)\n    except:\n        log.error(\'cant create tag for question\')\n    redirect(URL(r = request, f= \'article\', args = question_id))\n    return dict()\n\n\n\n\n#those code is for manage meta data not using right now\n# using flickr for photo uploading\n@auth.requires_login()\ndef show_image():\n\n    image_data = db(db.pic_store).select()\n    #image = image_data.pic\n\n    form = SQLFORM(db.pic_store)\n    if form.process().accepted:\n        response.flash = \'movie info is posted\'\n    return dict(form = form)\n@auth.requires_login()\ndef manage_image():\n    grid = SQLFORM.smartgrid(db.pic_store)\n    return dict(grid=grid)\n\n@auth.requires_login()\ndef manage_article_tag():\n    grid = SQLFORM.smartgrid(db.article_tag)\n    return dict(grid=grid)\nresponse._vars=response._caller(user)\n'
p7
sS'snapshot'
p8
(dp9
S'exception'
p10
(dp11
S'__module__'
p12
S"'urllib2'"
p13
sS'__getslice__'
p14
S"<method-wrapper '__getslice__' of URLError object>"
p15
sS'__str__'
p16
S"<bound method URLError.__str__ of URLError(SSLEr...c:504: EOF occurred in violation of protocol'),)>"
p17
sS'__reduce__'
p18
S'<built-in method __reduce__ of URLError object>'
p19
sS'__dict__'
p20
S"{'reason': SSLError(8, '_ssl.c:504: EOF occurred in violation of protocol')}"
p21
sS'__sizeof__'
p22
S'<built-in method __sizeof__ of URLError object>'
p23
sS'__weakref__'
p24
S'None'
p25
sS'__init__'
p26
S"<bound method URLError.__init__ of URLError(SSLE...c:504: EOF occurred in violation of protocol'),)>"
p27
sS'__setattr__'
p28
S"<method-wrapper '__setattr__' of URLError object>"
p29
sS'__reduce_ex__'
p30
S'<built-in method __reduce_ex__ of URLError object>'
p31
sS'__new__'
p32
S'<built-in method __new__ of type object>'
p33
sS'errno'
p34
S'None'
p35
sS'__format__'
p36
S'<built-in method __format__ of URLError object>'
p37
sS'__class__'
p38
S"<class 'urllib2.URLError'>"
p39
sS'filename'
p40
S'None'
p41
sS'__doc__'
p42
S'None'
p43
sS'__getitem__'
p44
S"<method-wrapper '__getitem__' of URLError object>"
p45
sS'__setstate__'
p46
S'<built-in method __setstate__ of URLError object>'
p47
sS'__getattribute__'
p48
S"<method-wrapper '__getattribute__' of URLError object>"
p49
sS'args'
p50
S"(SSLError(8, '_ssl.c:504: EOF occurred in violation of protocol'),)"
p51
sS'reason'
p52
S"SSLError(8, '_ssl.c:504: EOF occurred in violation of protocol')"
p53
sS'__subclasshook__'
p54
S'<built-in method __subclasshook__ of type object>'
p55
sS'__unicode__'
p56
S'<built-in method __unicode__ of URLError object>'
p57
sS'strerror'
p58
S'None'
p59
sS'__delattr__'
p60
S"<method-wrapper '__delattr__' of URLError object>"
p61
sS'__repr__'
p62
S"<method-wrapper '__repr__' of URLError object>"
p63
sS'__hash__'
p64
S"<method-wrapper '__hash__' of URLError object>"
p65
ssS'evalue'
p66
S'<urlopen error [Errno 8] _ssl.c:504: EOF occurred in violation of protocol>'
p67
sS'request'
p68
cgluon.html
XML_unpickle
p69
(S's\xe2_\x00\x00<div><table><tr><td style="font-weight:bold;vertical-align:top">ajax</td><td valign="top">:</td><td><div>False</div></td></tr><tr><td style="font-weight:bold;vertical-align:top">application</td><td valign="top">:</td><td><div>welcome</div></td></tr><tr><td style="font-weight:bold;vertical-align:top">args</td><td valign="top">:</td><td><div><table><tr><td><div>login</div></td></tr></table></div></td></tr><tr><td style="font-weight:bold;vertical-align:top">body</td><td valign="top">:</td><td><div>&lt;cStringIO.StringO object at 0x109536b58&gt;</div></td></tr><tr><td style="font-weight:bold;vertical-align:top">cid</td><td valign="top">:</td><td><div>None</div></td></tr><tr><td style="font-weight:bold;vertical-align:top">client</td><td valign="top">:</td><td><div>127.0.0.1</div></td></tr><tr><td style="font-weight:bold;vertical-align:top">controller</td><td valign="top">:</td><td><div>default</div></td></tr><tr><td style="font-weight:bold;vertical-align:top">cookies</td><td valign="top">:</td><td><div><table><tr><td style="font-weight:bold;vertical-align:top">session_id_admin</td><td valign="top">:</td><td><div>127.0.0.1-11e7c217-a4cf-46a0-a99c-1d61461b76da<table><tr><td style="font-weight:bold;vertical-align:top">comment</td><td valign="top">:</td><td><div></div></td></tr><tr><td style="font-weight:bold;vertical-align:top">domain</td><td valign="top">:</td><td><div></div></td></tr><tr><td style="font-weight:bold;vertical-align:top">expires</td><td valign="top">:</td><td><div></div></td></tr><tr><td style="font-weight:bold;vertical-align:top">httponly</td><td valign="top">:</td><td><div></div></td></tr><tr><td style="font-weight:bold;vertical-align:top">max-age</td><td valign="top">:</td><td><div></div></td></tr><tr><td style="font-weight:bold;vertical-align:top">path</td><td valign="top">:</td><td><div></div></td></tr><tr><td style="font-weight:bold;vertical-align:top">secure</td><td valign="top">:</td><td><div></div></td></tr><tr><td style="font-weight:bold;vertical-align:top">version</td><td valign="top">:</td><td><div></div></td></tr></table></div></td></tr><tr><td style="font-weight:bold;vertical-align:top">session_id_hellofacebook</td><td valign="top">:</td><td><div>127.0.0.1-31e33332-c52c-4319-8e61-c227f9b59729<table><tr><td style="font-weight:bold;vertical-align:top">comment</td><td valign="top">:</td><td><div></div></td></tr><tr><td style="font-weight:bold;vertical-align:top">domain</td><td valign="top">:</td><td><div></div></td></tr><tr><td style="font-weight:bold;vertical-align:top">expires</td><td valign="top">:</td><td><div></div></td></tr><tr><td style="font-weight:bold;vertical-align:top">httponly</td><td valign="top">:</td><td><div></div></td></tr><tr><td style="font-weight:bold;vertical-align:top">max-age</td><td valign="top">:</td><td><div></div></td></tr><tr><td style="font-weight:bold;vertical-align:top">path</td><td valign="top">:</td><td><div></div></td></tr><tr><td style="font-weight:bold;vertical-align:top">secure</td><td valign="top">:</td><td><div></div></td></tr><tr><td style="font-weight:bold;vertical-align:top">version</td><td valign="top">:</td><td><div></div></td></tr></table></div></td></tr><tr><td style="font-weight:bold;vertical-align:top">session_id_welcome</td><td valign="top">:</td><td><div>127.0.0.1-9b85eeb0-9486-4741-889d-55c1a771ff56<table><tr><td style="font-weight:bold;vertical-align:top">comment</td><td valign="top">:</td><td><div></div></td></tr><tr><td style="font-weight:bold;vertical-align:top">domain</td><td valign="top">:</td><td><div></div></td></tr><tr><td style="font-weight:bold;vertical-align:top">expires</td><td valign="top">:</td><td><div></div></td></tr><tr><td style="font-weight:bold;vertical-align:top">httponly</td><td valign="top">:</td><td><div></div></td></tr><tr><td style="font-weight:bold;vertical-align:top">max-age</td><td valign="top">:</td><td><div></div></td></tr><tr><td style="font-weight:bold;vertical-align:top">path</td><td valign="top">:</td><td><div></div></td></tr><tr><td style="font-weight:bold;vertical-align:top">secure</td><td valign="top">:</td><td><div></div></td></tr><tr><td style="font-weight:bold;vertical-align:top">version</td><td valign="top">:</td><td><div></div></td></tr></table></div></td></tr></table></div></td></tr><tr><td style="font-weight:bold;vertical-align:top">env</td><td valign="top">:</td><td><div><table><tr><td style="font-weight:bold;vertical-align:top">app_folders</td><td valign="top">:</td><td><div>set([&#x27;/Users/huyheo/Documents/huy/blogging/web2py/applications/welcome/&#x27;])</div></td></tr><tr><td style="font-weight:bold;vertical-align:top">applications_parent</td><td valign="top">:</td><td><div>/Users/huyheo/Documents/huy/blogging/web2py</div></td></tr><tr><td style="font-weight:bold;vertical-align:top">cmd_args</td><td valign="top">:</td><td><div><table></table></div></td></tr><tr><td style="font-weight:bold;vertical-align:top">cmd_options</td><td valign="top">:</td><td><div>&lt;Values at 0x1074fb950: {&#x27;verbose&#x27;: False, &#x27;ip&#x27;: &#x27;127.0.0.1&#x27;, &#x27;with_scheduler&#x27;: False, &#x27;ips&#x27;: [&#x27;124.46.127.216&#x27;, &#x27;fe80::aa20:66ff:fe54:c1c7%en0&#x27;], &#x27;shutdown_timeout&#x27;: 5, &#x27;taskbar&#x27;: False, &#x27;with_coverage&#x27;: False, &#x27;port&#x27;: 8000, &#x27;maxthreads&#x27;: None, &#x27;softcron&#x27;: False, &#x27;server_name&#x27;: &#x27;vkxs-Mac-mini.local&#x27;, &#x27;bpython&#x27;: False, &#x27;nogui&#x27;: False, &#x27;pid_filename&#x27;: &#x27;httpserver.pid&#x27;, &#x27;extcron&#x27;: False, &#x27;runcron&#x27;: False, &#x27;run_system_tests&#x27;: False, &#x27;test&#x27;: None, &#x27;folder&#x27;: &#x27;/Users/huyheo/Documents/huy/blogging/web2py&#x27;, &#x27;config&#x27;: &#x27;&#x27;, &#x27;minthreads&#x27;: None, &#x27;winservice&#x27;: &#x27;&#x27;, &#x27;shell&#x27;: None, &#x27;run&#x27;: &#x27;&#x27;, &#x27;log_filename&#x27;: &#x27;httpserver.log&#x27;, &#x27;debuglevel&#x27;: 30, &#x27;args&#x27;: [&#x27;&#x27;], &#x27;socket_timeout&#x27;: 5, &#x27;ssl_ca_certificate&#x27;: None, &#x27;scheduler&#x27;: None, &#x27;profiler_filename&#x27;: None, &#x27;ssl_private_key&#x27;: &#x27;&#x27;, &#x27;scheduler_groups&#x27;: None, &#x27;password&#x27;: &#x27;&lt;ask&gt;&#x27;, &#x27;request_queue_size&#x27;: 5, &#x27;ssl_certificate&#x27;: &#x27;&#x27;, &#x27;cronjob&#x27;: False, &#x27;numthreads&#x27;: None, &#x27;quiet&#x27;: False, &#x27;interfaces&#x27;: None, &#x27;import_models&#x27;: False, &#x27;timeout&#x27;: 10, &#x27;plain&#x27;: False, &#x27;nobanner&#x27;: False}&gt;</div></td></tr><tr><td style="font-weight:bold;vertical-align:top">db_sessions</td><td valign="top">:</td><td><div>set([])</div></td></tr><tr><td style="font-weight:bold;vertical-align:top">debugging</td><td valign="top">:</td><td><div>False</div></td></tr><tr><td style="font-weight:bold;vertical-align:top">gluon_parent</td><td valign="top">:</td><td><div>/Users/huyheo/Documents/huy/blogging/web2py</div></td></tr><tr><td style="font-weight:bold;vertical-align:top">http_accept</td><td valign="top">:</td><td><div>text/html,application/xhtml+xml,application/xml;q=0.9,image/webp,*/*;q=0.8</div></td></tr><tr><td style="font-weight:bold;vertical-align:top">http_accept_encoding</td><td valign="top">:</td><td><div>gzip,deflate,sdch</div></td></tr><tr><td style="font-weight:bold;vertical-align:top">http_accept_language</td><td valign="top">:</td><td><div>vi-VN,vi;q=0.8,fr-FR;q=0.6,fr;q=0.4,en-US;q=0.2,en;q=0.2,ko;q=0.2</div></td></tr><tr><td style="font-weight:bold;vertical-align:top">http_connection</td><td valign="top">:</td><td><div>keep-alive</div></td></tr><tr><td style="font-weight:bold;vertical-align:top">http_cookie</td><td valign="top">:</td><td><div>session_id_admin=127.0.0.1-11e7c217-a4cf-46a0-a99c-1d61461b76da; session_id_hellofacebook=127.0.0.1-31e33332-c52c-4319-8e61-c227f9b59729; session_id_welcome=127.0.0.1-9b85eeb0-9486-4741-889d-55c1a771ff56</div></td></tr><tr><td style="font-weight:bold;vertical-align:top">http_host</td><td valign="top">:</td><td><div>127.0.0.1:9000</div></td></tr><tr><td style="font-weight:bold;vertical-align:top">http_referer</td><td valign="top">:</td><td><div>http://127.0.0.1:9000/welcome/default/index</div></td></tr><tr><td style="font-weight:bold;vertical-align:top">http_user_agent</td><td valign="top">:</td><td><div>Mozilla/5.0 (Macintosh; Intel Mac OS X 10_9_1) AppleWebKit/537.36 (KHTML, like Gecko) Chrome/32.0.1700.77 Safari/537.36</div></td></tr><tr><td style="font-weight:bold;vertical-align:top">is_jython</td><td valign="top">:</td><td><div>False</div></td></tr><tr><td style="font-weight:bold;vertical-align:top">is_pypy</td><td valign="top">:</td><td><div>False</div></td></tr><tr><td style="font-weight:bold;vertical-align:top">local_hosts</td><td valign="top">:</td><td><div><table><tr><td><div>fe80::aa20:66ff:fe54:c1c7%en0</div></td></tr><tr><td><div>124.46.127.216</div></td></tr><tr><td><div>::ffff:127.0.0.1</div></td></tr><tr><td><div>::1</div></td></tr><tr><td><div>vkxs-Mac-mini.local</div></td></tr><tr><td><div>127.0.0.1</div></td></tr></table></div></td></tr><tr><td style="font-weight:bold;vertical-align:top">path_info</td><td valign="top">:</td><td><div>/welcome/default/user/login</div></td></tr><tr><td style="font-weight:bold;vertical-align:top">query_string</td><td valign="top">:</td><td><div>code=AQC0KTUZICUph3p3P5FC_kBvcuEY5NySwX7IOsH15wsoCdGv8g_SDPDTAVMOUi1CRu1GRjLhndcNiP_1zvyK7EDM7gv_2zZ1bJj9DilSwC6jrAKLJ5rDdQOFO_glIvdxrG-ZwA9JS1VbSaoRwrgX0OytKk7UBVGiLRe7eKkQOb7vz5Th-takxsDnyaoUkxAavLgmOrMfJacri7B0kniL85EV2J3DMkszHUZMPix6ljy1A1Z2xVNcwL0UpvGfWYLZkbGMcNH8XdtyyKzqRpDCycmPllvR1v_5Bvxch1WJQNSLj__8Js3QYgLfNlGbsetoHxc&amp;state=auth_provider%3Dfacebook</div></td></tr><tr><td style="font-weight:bold;vertical-align:top">remote_addr</td><td valign="top">:</td><td><div>127.0.0.1</div></td></tr><tr><td style="font-weight:bold;vertical-align:top">remote_port</td><td valign="top">:</td><td><div>53778</div></td></tr><tr><td style="font-weight:bold;vertical-align:top">request_method</td><td valign="top">:</td><td><div>GET</div></td></tr><tr><td style="font-weight:bold;vertical-align:top">request_uri</td><td valign="top">:</td><td><div>/welcome/default/user/login?code=AQC0KTUZICUph3p3P5FC_kBvcuEY5NySwX7IOsH15wsoCdGv8g_SDPDTAVMOUi1CRu1GRjLhndcNiP_1zvyK7EDM7gv_2zZ1bJj9DilSwC6jrAKLJ5rDdQOFO_glIvdxrG-ZwA9JS1VbSaoRwrgX0OytKk7UBVGiLRe7eKkQOb7vz5Th-takxsDnyaoUkxAavLgmOrMfJacri7B0kniL85EV2J3DMkszHUZMPix6ljy1A1Z2xVNcwL0UpvGfWYLZkbGMcNH8XdtyyKzqRpDCycmPllvR1v_5Bvxch1WJQNSLj__8Js3QYgLfNlGbsetoHxc&amp;state=auth_provider%3Dfacebook</div></td></tr><tr><td style="font-weight:bold;vertical-align:top">script_name</td><td valign="top">:</td><td><div></div></td></tr><tr><td style="font-weight:bold;vertical-align:top">server_name</td><td valign="top">:</td><td><div>vkxs-Mac-mini.local</div></td></tr><tr><td style="font-weight:bold;vertical-align:top">server_port</td><td valign="top">:</td><td><div>9000</div></td></tr><tr><td style="font-weight:bold;vertical-align:top">server_protocol</td><td valign="top">:</td><td><div>HTTP/1.1</div></td></tr><tr><td style="font-weight:bold;vertical-align:top">server_software</td><td valign="top">:</td><td><div>Rocket 1.2.6</div></td></tr><tr><td style="font-weight:bold;vertical-align:top">web2py_path</td><td valign="top">:</td><td><div>/Users/huyheo/Documents/huy/blogging/web2py</div></td></tr><tr><td style="font-weight:bold;vertical-align:top">web2py_version</td><td valign="top">:</td><td><div>2.5.1-stable+timestamp.2013.06.16.12.00.29</div></td></tr><tr><td style="font-weight:bold;vertical-align:top">wsgi_errors</td><td valign="top">:</td><td><div>&lt;open file &#x27;&lt;stderr&gt;&#x27;, mode &#x27;w&#x27; at 0x1067121e0&gt;</div></td></tr><tr><td style="font-weight:bold;vertical-align:top">wsgi_file_wrapper</td><td valign="top">:</td><td><div>&lt;class wsgiref.util.FileWrapper at 0x10723b668&gt;</div></td></tr><tr><td style="font-weight:bold;vertical-align:top">wsgi_input</td><td valign="top">:</td><td><div>&lt;socket._fileobject object at 0x109500cd0&gt;</div></td></tr><tr><td style="font-weight:bold;vertical-align:top">wsgi_multiprocess</td><td valign="top">:</td><td><div>False</div></td></tr><tr><td style="font-weight:bold;vertical-align:top">wsgi_multithread</td><td valign="top">:</td><td><div>True</div></td></tr><tr><td style="font-weight:bold;vertical-align:top">wsgi_run_once</td><td valign="top">:</td><td><div>False</div></td></tr><tr><td style="font-weight:bold;vertical-align:top">wsgi_url_scheme</td><td valign="top">:</td><td><div>http</div></td></tr><tr><td style="font-weight:bold;vertical-align:top">wsgi_version</td><td valign="top">:</td><td><div><table><tr><td><div>1</div></td></tr><tr><td><div>0</div></td></tr></table></div></td></tr></table></div></td></tr><tr><td style="font-weight:bold;vertical-align:top">extension</td><td valign="top">:</td><td><div>html</div></td></tr><tr><td style="font-weight:bold;vertical-align:top">folder</td><td valign="top">:</td><td><div>/Users/huyheo/Documents/huy/blogging/web2py/applications/welcome/</div></td></tr><tr><td style="font-weight:bold;vertical-align:top">function</td><td valign="top">:</td><td><div>user</div></td></tr><tr><td style="font-weight:bold;vertical-align:top">get_vars</td><td valign="top">:</td><td><div><table><tr><td style="font-weight:bold;vertical-align:top">code</td><td valign="top">:</td><td><div>AQC0KTUZICUph3p3P5FC_kBvcuEY5NySwX7IOsH15wsoCdGv8g_SDPDTAVMOUi1CRu1GRjLhndcNiP_1zvyK7EDM7gv_2zZ1bJj9DilSwC6jrAKLJ5rDdQOFO_glIvdxrG-ZwA9JS1VbSaoRwrgX0OytKk7UBVGiLRe7eKkQOb7vz5Th-takxsDnyaoUkxAavLgmOrMfJacri7B0kniL85EV2J3DMkszHUZMPix6ljy1A1Z2xVNcwL0UpvGfWYLZkbGMcNH8XdtyyKzqRpDCycmPllvR1v_5Bvxch1WJQNSLj__8Js3QYgLfNlGbsetoHxc</div></td></tr><tr><td style="font-weight:bold;vertical-align:top">state</td><td valign="top">:</td><td><div>auth_provider=facebook</div></td></tr></table></div></td></tr><tr><td style="font-weight:bold;vertical-align:top">global_settings</td><td valign="top">:</td><td><div><table><tr><td style="font-weight:bold;vertical-align:top">app_folders</td><td valign="top">:</td><td><div>set([&#x27;/Users/huyheo/Documents/huy/blogging/web2py/applications/welcome/&#x27;])</div></td></tr><tr><td style="font-weight:bold;vertical-align:top">applications_parent</td><td valign="top">:</td><td><div>/Users/huyheo/Documents/huy/blogging/web2py</div></td></tr><tr><td style="font-weight:bold;vertical-align:top">cmd_args</td><td valign="top">:</td><td><div><table></table></div></td></tr><tr><td style="font-weight:bold;vertical-align:top">cmd_options</td><td valign="top">:</td><td><div>&lt;Values at 0x1074fb950: {&#x27;verbose&#x27;: False, &#x27;ip&#x27;: &#x27;127.0.0.1&#x27;, &#x27;with_scheduler&#x27;: False, &#x27;ips&#x27;: [&#x27;124.46.127.216&#x27;, &#x27;fe80::aa20:66ff:fe54:c1c7%en0&#x27;], &#x27;shutdown_timeout&#x27;: 5, &#x27;taskbar&#x27;: False, &#x27;with_coverage&#x27;: False, &#x27;port&#x27;: 8000, &#x27;maxthreads&#x27;: None, &#x27;softcron&#x27;: False, &#x27;server_name&#x27;: &#x27;vkxs-Mac-mini.local&#x27;, &#x27;bpython&#x27;: False, &#x27;nogui&#x27;: False, &#x27;pid_filename&#x27;: &#x27;httpserver.pid&#x27;, &#x27;extcron&#x27;: False, &#x27;runcron&#x27;: False, &#x27;run_system_tests&#x27;: False, &#x27;test&#x27;: None, &#x27;folder&#x27;: &#x27;/Users/huyheo/Documents/huy/blogging/web2py&#x27;, &#x27;config&#x27;: &#x27;&#x27;, &#x27;minthreads&#x27;: None, &#x27;winservice&#x27;: &#x27;&#x27;, &#x27;shell&#x27;: None, &#x27;run&#x27;: &#x27;&#x27;, &#x27;log_filename&#x27;: &#x27;httpserver.log&#x27;, &#x27;debuglevel&#x27;: 30, &#x27;args&#x27;: [&#x27;&#x27;], &#x27;socket_timeout&#x27;: 5, &#x27;ssl_ca_certificate&#x27;: None, &#x27;scheduler&#x27;: None, &#x27;profiler_filename&#x27;: None, &#x27;ssl_private_key&#x27;: &#x27;&#x27;, &#x27;scheduler_groups&#x27;: None, &#x27;password&#x27;: &#x27;&lt;ask&gt;&#x27;, &#x27;request_queue_size&#x27;: 5, &#x27;ssl_certificate&#x27;: &#x27;&#x27;, &#x27;cronjob&#x27;: False, &#x27;numthreads&#x27;: None, &#x27;quiet&#x27;: False, &#x27;interfaces&#x27;: None, &#x27;import_models&#x27;: False, &#x27;timeout&#x27;: 10, &#x27;plain&#x27;: False, &#x27;nobanner&#x27;: False}&gt;</div></td></tr><tr><td style="font-weight:bold;vertical-align:top">db_sessions</td><td valign="top">:</td><td><div>set([])</div></td></tr><tr><td style="font-weight:bold;vertical-align:top">debugging</td><td valign="top">:</td><td><div>False</div></td></tr><tr><td style="font-weight:bold;vertical-align:top">gluon_parent</td><td valign="top">:</td><td><div>/Users/huyheo/Documents/huy/blogging/web2py</div></td></tr><tr><td style="font-weight:bold;vertical-align:top">is_jython</td><td valign="top">:</td><td><div>False</div></td></tr><tr><td style="font-weight:bold;vertical-align:top">is_pypy</td><td valign="top">:</td><td><div>False</div></td></tr><tr><td style="font-weight:bold;vertical-align:top">local_hosts</td><td valign="top">:</td><td><div><table><tr><td><div>fe80::aa20:66ff:fe54:c1c7%en0</div></td></tr><tr><td><div>124.46.127.216</div></td></tr><tr><td><div>::ffff:127.0.0.1</div></td></tr><tr><td><div>::1</div></td></tr><tr><td><div>vkxs-Mac-mini.local</div></td></tr><tr><td><div>127.0.0.1</div></td></tr></table></div></td></tr><tr><td style="font-weight:bold;vertical-align:top">web2py_version</td><td valign="top">:</td><td><div>2.5.1-stable+timestamp.2013.06.16.12.00.29</div></td></tr></table></div></td></tr><tr><td style="font-weight:bold;vertical-align:top">is_https</td><td valign="top">:</td><td><div>False</div></td></tr><tr><td style="font-weight:bold;vertical-align:top">is_local</td><td valign="top">:</td><td><div>True</div></td></tr><tr><td style="font-weight:bold;vertical-align:top">is_restful</td><td valign="top">:</td><td><div>False</div></td></tr><tr><td style="font-weight:bold;vertical-align:top">now</td><td valign="top">:</td><td><div>datetime.datetime(2014, 1, 22, 15, 30, 40, 580161)</div></td></tr><tr><td style="font-weight:bold;vertical-align:top">post_vars</td><td valign="top">:</td><td><div><table></table></div></td></tr><tr><td style="font-weight:bold;vertical-align:top">raw_args</td><td valign="top">:</td><td><div>login</div></td></tr><tr><td style="font-weight:bold;vertical-align:top">raw_extension</td><td valign="top">:</td><td><div>None</div></td></tr><tr><td style="font-weight:bold;vertical-align:top">url</td><td valign="top">:</td><td><div>/welcome/default/user/login</div></td></tr><tr><td style="font-weight:bold;vertical-align:top">utcnow</td><td valign="top">:</td><td><div>datetime.datetime(2014, 1, 22, 8, 30, 40, 580175)</div></td></tr><tr><td style="font-weight:bold;vertical-align:top">uuid</td><td valign="top">:</td><td><div>welcome/127.0.0.1.2014-01-22.15-30-40.85fcb871-7ba9-47ec-83bc-38bf6c698bce</div></td></tr><tr><td style="font-weight:bold;vertical-align:top">vars</td><td valign="top">:</td><td><div><table><tr><td style="font-weight:bold;vertical-align:top">code</td><td valign="top">:</td><td><div>AQC0KTUZICUph3p3P5FC_kBvcuEY5NySwX7IOsH15wsoCdGv8g_SDPDTAVMOUi1CRu1GRjLhndcNiP_1zvyK7EDM7gv_2zZ1bJj9DilSwC6jrAKLJ5rDdQOFO_glIvdxrG-ZwA9JS1VbSaoRwrgX0OytKk7UBVGiLRe7eKkQOb7vz5Th-takxsDnyaoUkxAavLgmOrMfJacri7B0kniL85EV2J3DMkszHUZMPix6ljy1A1Z2xVNcwL0UpvGfWYLZkbGMcNH8XdtyyKzqRpDCycmPllvR1v_5Bvxch1WJQNSLj__8Js3QYgLfNlGbsetoHxc</div></td></tr><tr><td style="font-weight:bold;vertical-align:top">state</td><td valign="top">:</td><td><div>auth_provider=facebook</div></td></tr></table></div></td></tr><tr><td style="font-weight:bold;vertical-align:top">wsgi</td><td valign="top">:</td><td><div><table><tr><td style="font-weight:bold;vertical-align:top">environ</td><td valign="top">:</td><td><div><table><tr><td style="font-weight:bold;vertical-align:top">HTTP_ACCEPT</td><td valign="top">:</td><td><div>text/html,application/xhtml+xml,application/xml;q=0.9,image/webp,*/*;q=0.8</div></td></tr><tr><td style="font-weight:bold;vertical-align:top">HTTP_ACCEPT_ENCODING</td><td valign="top">:</td><td><div>gzip,deflate,sdch</div></td></tr><tr><td style="font-weight:bold;vertical-align:top">HTTP_ACCEPT_LANGUAGE</td><td valign="top">:</td><td><div>vi-VN,vi;q=0.8,fr-FR;q=0.6,fr;q=0.4,en-US;q=0.2,en;q=0.2,ko;q=0.2</div></td></tr><tr><td style="font-weight:bold;vertical-align:top">HTTP_CONNECTION</td><td valign="top">:</td><td><div>keep-alive</div></td></tr><tr><td style="font-weight:bold;vertical-align:top">HTTP_COOKIE</td><td valign="top">:</td><td><div>session_id_admin=127.0.0.1-11e7c217-a4cf-46a0-a99c-1d61461b76da; session_id_hellofacebook=127.0.0.1-31e33332-c52c-4319-8e61-c227f9b59729; session_id_welcome=127.0.0.1-9b85eeb0-9486-4741-889d-55c1a771ff56</div></td></tr><tr><td style="font-weight:bold;vertical-align:top">HTTP_HOST</td><td valign="top">:</td><td><div>127.0.0.1:9000</div></td></tr><tr><td style="font-weight:bold;vertical-align:top">HTTP_REFERER</td><td valign="top">:</td><td><div>http://127.0.0.1:9000/welcome/default/index</div></td></tr><tr><td style="font-weight:bold;vertical-align:top">HTTP_USER_AGENT</td><td valign="top">:</td><td><div>Mozilla/5.0 (Macintosh; Intel Mac OS X 10_9_1) AppleWebKit/537.36 (KHTML, like Gecko) Chrome/32.0.1700.77 Safari/537.36</div></td></tr><tr><td style="font-weight:bold;vertical-align:top">PATH_INFO</td><td valign="top">:</td><td><div>/welcome/default/user/login</div></td></tr><tr><td style="font-weight:bold;vertical-align:top">QUERY_STRING</td><td valign="top">:</td><td><div>code=AQC0KTUZICUph3p3P5FC_kBvcuEY5NySwX7IOsH15wsoCdGv8g_SDPDTAVMOUi1CRu1GRjLhndcNiP_1zvyK7EDM7gv_2zZ1bJj9DilSwC6jrAKLJ5rDdQOFO_glIvdxrG-ZwA9JS1VbSaoRwrgX0OytKk7UBVGiLRe7eKkQOb7vz5Th-takxsDnyaoUkxAavLgmOrMfJacri7B0kniL85EV2J3DMkszHUZMPix6ljy1A1Z2xVNcwL0UpvGfWYLZkbGMcNH8XdtyyKzqRpDCycmPllvR1v_5Bvxch1WJQNSLj__8Js3QYgLfNlGbsetoHxc&amp;state=auth_provider%3Dfacebook</div></td></tr><tr><td style="font-weight:bold;vertical-align:top">REMOTE_ADDR</td><td valign="top">:</td><td><div>127.0.0.1</div></td></tr><tr><td style="font-weight:bold;vertical-align:top">REMOTE_PORT</td><td valign="top">:</td><td><div>53778</div></td></tr><tr><td style="font-weight:bold;vertical-align:top">REQUEST_METHOD</td><td valign="top">:</td><td><div>GET</div></td></tr><tr><td style="font-weight:bold;vertical-align:top">REQUEST_URI</td><td valign="top">:</td><td><div>/welcome/default/user/login?code=AQC0KTUZICUph3p3P5FC_kBvcuEY5NySwX7IOsH15wsoCdGv8g_SDPDTAVMOUi1CRu1GRjLhndcNiP_1zvyK7EDM7gv_2zZ1bJj9DilSwC6jrAKLJ5rDdQOFO_glIvdxrG-ZwA9JS1VbSaoRwrgX0OytKk7UBVGiLRe7eKkQOb7vz5Th-takxsDnyaoUkxAavLgmOrMfJacri7B0kniL85EV2J3DMkszHUZMPix6ljy1A1Z2xVNcwL0UpvGfWYLZkbGMcNH8XdtyyKzqRpDCycmPllvR1v_5Bvxch1WJQNSLj__8Js3QYgLfNlGbsetoHxc&amp;state=auth_provider%3Dfacebook</div></td></tr><tr><td style="font-weight:bold;vertical-align:top">SCRIPT_NAME</td><td valign="top">:</td><td><div></div></td></tr><tr><td style="font-weight:bold;vertical-align:top">SERVER_NAME</td><td valign="top">:</td><td><div>vkxs-Mac-mini.local</div></td></tr><tr><td style="font-weight:bold;vertical-align:top">SERVER_PORT</td><td valign="top">:</td><td><div>9000</div></td></tr><tr><td style="font-weight:bold;vertical-align:top">SERVER_PROTOCOL</td><td valign="top">:</td><td><div>HTTP/1.1</div></td></tr><tr><td style="font-weight:bold;vertical-align:top">SERVER_SOFTWARE</td><td valign="top">:</td><td><div>Rocket 1.2.6</div></td></tr><tr><td style="font-weight:bold;vertical-align:top">wsgi.errors</td><td valign="top">:</td><td><div>&lt;open file &#x27;&lt;stderr&gt;&#x27;, mode &#x27;w&#x27; at 0x1067121e0&gt;</div></td></tr><tr><td style="font-weight:bold;vertical-align:top">wsgi.file_wrapper</td><td valign="top">:</td><td><div>&lt;class wsgiref.util.FileWrapper at 0x10723b668&gt;</div></td></tr><tr><td style="font-weight:bold;vertical-align:top">wsgi.input</td><td valign="top">:</td><td><div>&lt;cStringIO.StringO object at 0x109536b58&gt;</div></td></tr><tr><td style="font-weight:bold;vertical-align:top">wsgi.multiprocess</td><td valign="top">:</td><td><div>False</div></td></tr><tr><td style="font-weight:bold;vertical-align:top">wsgi.multithread</td><td valign="top">:</td><td><div>True</div></td></tr><tr><td style="font-weight:bold;vertical-align:top">wsgi.run_once</td><td valign="top">:</td><td><div>False</div></td></tr><tr><td style="font-weight:bold;vertical-align:top">wsgi.url_scheme</td><td valign="top">:</td><td><div>http</div></td></tr><tr><td style="font-weight:bold;vertical-align:top">wsgi.version</td><td valign="top">:</td><td><div>1</div></td></tr></table></div></td></tr></table></div></td></tr></table></div>'
tRp70
sS'frames'
p71
(lp72
(dp73
S'file'
p74
S'/Users/huyheo/Documents/huy/blogging/web2py/gluon/restricted.py'
p75
sS'dump'
p76
(dp77
S'environment'
p78
S"{'A': <class 'gluon.html.A'>, 'ALL_MOVIE_TYPE': 'all_movie', 'ANY_OF': <class 'gluon.validators.ANY_OF'>, 'ARCHIVE': 'archive', 'Auth': <class 'gluon.tools.Auth'>, 'B': <class 'gluon.html.B'>, 'BEAUTIFY': <class 'gluon.html.BEAUTIFY'>, 'BODY': <class 'gluon.html.BODY'>, 'BR': <class 'gluon.html.BR'>, 'BUTTON': <class 'gluon.html.BUTTON'>, ...}"
p79
sS'ccode'
p80
S'<code object <module> at 0x10955a430, file "/Use...cations/welcome/controllers/default.py", line 12>'
p81
ssS'lnum'
p82
I212
sS'lines'
p83
(dp84
I207
S'    try:'
p85
sI208
S'        if isinstance(code, types.CodeType):'
p86
sI209
S'            ccode = code'
p87
sI210
S'        else:'
p88
sI211
S'            ccode = compile2(code, layer)'
p89
sI212
S'        exec ccode in environment'
p90
sI213
S'    except HTTP:'
p91
sI214
S'        raise'
p92
sI215
S'    except RestrictedError:'
p93
sI216
S'        # do not encapsulate (obfuscate) the original RestrictedError'
p94
ssS'call'
p95
S"(code='# -*- coding: utf-8 -*-\\n# this file is released ...grid=grid)\\nresponse._vars=response._caller(user)\\n', environment={'A': <class 'gluon.html.A'>, 'ALL_MOVIE_TYPE': 'all_movie', 'ANY_OF': <class 'gluon.validators.ANY_OF'>, 'ARCHIVE': 'archive', 'Auth': <class 'gluon.tools.Auth'>, 'B': <class 'gluon.html.B'>, 'BEAUTIFY': <class 'gluon.html.BEAUTIFY'>, 'BODY': <class 'gluon.html.BODY'>, 'BR': <class 'gluon.html.BR'>, 'BUTTON': <class 'gluon.html.BUTTON'>, ...}, layer='/Users/huyheo/Documents/huy/blogging/web2py/applications/welcome/controllers/default.py')"
p96
sS'func'
p97
S'restricted'
p98
sa(dp99
g74
S'/Users/huyheo/Documents/huy/blogging/web2py/applications/welcome/controllers/default.py'
p100
sg76
(dp101
sg82
I343
sg83
(dp102
I333
S'    return dict(form = form)'
p103
sI334
S'@auth.requires_login()'
p104
sI335
S'def manage_image():'
p105
sI336
S'    grid = SQLFORM.smartgrid(db.pic_store)'
p106
sI337
S'    return dict(grid=grid)'
p107
sI338
S''
sI339
S'@auth.requires_login()'
p108
sI340
S'def manage_article_tag():'
p109
sI341
S'    grid = SQLFORM.smartgrid(db.article_tag)'
p110
sI342
S'    return dict(grid=grid)'
p111
ssg95
S'()'
p112
sg97
S'<module>'
p113
sa(dp114
g74
S'/Users/huyheo/Documents/huy/blogging/web2py/gluon/globals.py'
p115
sg76
(dp116
S'self'
p117
S'undefined'
p118
sS'f'
S'<function user>'
p119
ssg82
I194
sg83
(dp120
I192
S"        self.delimiters = ('{{', '}}')"
p121
sI193
S'        self._vars = None'
p122
sI194
S'        self._caller = lambda f: f()'
p123
sI195
S'        self._view_environment = None'
p124
sI196
S'        self._custom_commit = None'
p125
sI197
S'        self._custom_rollback = None'
p126
sI198
S''
sI189
S'        self.menu = []             # used by the default view layout'
p127
sI190
S'        self.files = []            # used by web2py_ajax.html'
p128
sI191
S'        self.generic_patterns = []  # patterns to allow generic views'
p129
ssg95
S'(f=<function user>)'
p130
sg97
S'<lambda>'
p131
sa(dp132
g74
S'/Users/huyheo/Documents/huy/blogging/web2py/applications/welcome/controllers/default.py'
p133
sg76
(dp134
S'global auth'
p135
S'<gluon.tools.Auth object>'
p136
sS'form'
p137
g118
sS'builtindict'
p138
S"<type 'dict'>"
p139
ssg82
I56
sg83
(dp140
I51
S''
sI52
S'def test_facebook():'
p141
sI53
S'    return dict()'
p142
sI54
S''
sI55
S'def user():'
p143
sI56
S'    return dict(form = auth())'
p144
sI57
S''
sI58
S'def index():'
p145
sI59
S'    """'
p146
sI60
S'    example action using the internationalization operator T and flash'
p147
ssg95
S'()'
p148
sg97
S'user'
p149
sa(dp150
g74
S'/Users/huyheo/Documents/huy/blogging/web2py/gluon/tools.py'
p151
sg76
(dp152
S'self'
p153
S'<gluon.tools.Auth object>'
p154
sS'args'
p155
S"['login']"
p156
sS'builtingetattr'
p157
S'<built-in function getattr>'
p158
ssg82
I1287
sg83
(dp159
I1282
S"                       'change_password', 'profile', 'groups',"
p160
sI1283
S"                       'impersonate', 'not_authorized'):"
p161
sI1284
S"            if len(request.args) >= 2 and args[0] == 'impersonate':"
p162
sI1285
S'                return getattr(self, args[0])(request.args[1])'
p163
sI1286
S'            else:'
p164
sI1287
S'                return getattr(self, args[0])()'
p165
sI1288
S"        elif args[0] == 'cas' and not self.settings.cas_provider:"
p166
sI1289
S"            if args(1) == self.settings.cas_actions['login']:"
p167
sI1290
S'                return self.cas_login(version=2)'
p168
sI1291
S"            elif args(1) == self.settings.cas_actions['validate']:"
p169
ssg95
S'(self=<gluon.tools.Auth object>)'
p170
sg97
S'__call__'
p171
sa(dp172
g74
S'/Users/huyheo/Documents/huy/blogging/web2py/gluon/tools.py'
p173
sg76
(dp174
S'cas.login_url'
p175
S'<bound method FaceBookAccount.login_url of <__restricted__.FaceBookAccount object>>'
p176
sS'cas'
p177
S'<__restricted__.FaceBookAccount object>'
p178
sS'self'
p179
S'<gluon.tools.Auth object>'
p180
sS'next'
p181
S"'/welcome/default/user/login'"
p182
sS'client_side'
p183
g118
sS'global redirect'
p184
S'<function redirect>'
p185
sS'self.settings'
p186
S"<Storage {'verify_email_onaccept': [], 'register...trieve_username_next': '/welcome/default/index'}>"
p187
sS'self.settings.client_side'
p188
S'True'
p189
ssg82
I2177
sg83
(dp190
I2176
S"                next = self.url(self.settings.function, args='login')"
p191
sI2177
S'                redirect(cas.login_url(next),'
p192
sI2178
S'                         client_side=self.settings.client_side)'
p193
sI2179
S''
sI2180
S'        # process authenticated users'
p194
sI2181
S'        if user:'
p195
sI2172
S"            elif hasattr(cas, 'login_form'):"
p196
sI2173
S'                return cas.login_form()'
p197
sI2174
S'            else:'
p198
sI2175
S'                # we need to pass through login again before going on'
p199
ssg95
S"(self=<gluon.tools.Auth object>, next='/welcome/default/user/login', onvalidation=[], onaccept=[], log='Utilisateur %(id)s connect\\xc3\\xa9')"
p200
sg97
S'login'
p201
sa(dp202
g74
S'/Users/huyheo/Documents/huy/blogging/web2py/gluon/contrib/login_methods/oauth20_account.py'
p203
sg76
(dp204
S'self'
p205
S'<__restricted__.FaceBookAccount object>'
p206
sS'next'
p207
S"'/welcome/default/user/login'"
p208
sS'self.__oauth_login'
p209
g118
ssg82
I228
sg83
(dp210
I224
S'        self.args = args'
p211
sI225
S'        self.socket_timeout = socket_timeout'
p212
sI226
S''
sI227
S'    def login_url(self, next="/"):'
p213
sI228
S'        self.__oauth_login(next)'
p214
sI229
S'        return next'
p215
sI230
S''
sI231
S'    def logout_url(self, next="/"):'
p216
sI232
S'        del current.session.token'
p217
sI223
S'        self.token_url = token_url'
p218
ssg95
S"(self=<__restricted__.FaceBookAccount object>, next='/welcome/default/user/login')"
p219
sg97
S'login_url'
p220
sa(dp221
g74
S'/Users/huyheo/Documents/huy/blogging/web2py/gluon/contrib/login_methods/oauth20_account.py'
p222
sg76
(dp223
S'self.accessToken'
p224
S'<bound method FaceBookAccount.accessToken of <__restricted__.FaceBookAccount object>>'
p225
sS'token'
p226
g118
sS'self'
p227
S'<__restricted__.FaceBookAccount object>'
p228
ssg82
I279
sg83
(dp229
I274
S'        Once the authentication code has been received this method is'
p230
sI275
S'        called to set the access token into the session by calling'
p231
sI276
S'        accessToken()'
p232
sI277
S'        """'
p233
sI278
S''
sI279
S'        token = self.accessToken()'
p234
sI280
S'        if not token:'
p235
sI281
S'            current.session.redirect_uri = self.__redirect_uri(next)'
p236
sI282
S'            data = dict(redirect_uri=current.session.redirect_uri,'
p237
sI283
S"                        response_type='code',"
p238
ssg95
S"(self=<__restricted__.FaceBookAccount object>, next='/welcome/default/user/login')"
p239
sg97
S'__oauth_login'
p240
sa(dp241
g74
S'/Users/huyheo/Documents/huy/blogging/web2py/gluon/contrib/login_methods/oauth20_account.py'
p242
sg76
(dp243
S'open_url'
p244
S'None'
p245
sS'self.socket_timeout'
p246
S'60'
p247
sS'self'
p248
S'<__restricted__.FaceBookAccount object>'
p249
sS'opener'
p250
S'<urllib2.OpenerDirector instance>'
p251
sS'global urlencode'
p252
S'<function urlencode>'
p253
sS'self.token_url'
p254
S"'https://graph.facebook.com/oauth/access_token'"
p255
sS'data'
p256
S"{'client_id': '248577781948157', 'client_secret': 'a5abf06a362c8f0fa4cf5da339906185', 'code': 'AQC0KTUZICUph3p3P5FC_kBvcuEY5NySwX7IOsH15wsoCdGv...DCycmPllvR1v_5Bvxch1WJQNSLj__8Js3QYgLfNlGbsetoHxc', 'grant_type': 'authorization_code', 'redirect_uri': 'http://127.0.0.1:9000/welcome/default/user/login'}"
p257
sS'opener.open'
p258
S'<bound method OpenerDirector.open of <urllib2.OpenerDirector instance>>'
p259
ssg82
I164
sg83
(dp260
I160
S''
sI161
S'            open_url = None'
p261
sI162
S'            opener = self.__build_url_opener(self.token_url)'
p262
sI163
S'            try:'
p263
sI164
S'                open_url = opener.open(self.token_url, urlencode(data), self.socket_timeout)'
p264
sI165
S'            except urllib2.HTTPError, e:'
p265
sI166
S'                tmp = e.read()'
p266
sI167
S'                raise Exception(tmp)'
p267
sI168
S'            finally:'
p268
sI159
S'                        )'
p269
ssg95
S'(self=<__restricted__.FaceBookAccount object>)'
p270
sg97
S'accessToken'
p271
sa(dp272
g74
S'/System/Library/Frameworks/Python.framework/Versions/2.7/lib/python2.7/urllib2.py'
p273
sg76
(dp274
S'self'
p275
S'<urllib2.OpenerDirector instance>'
p276
sS'req'
p277
S'<urllib2.Request instance>'
p278
sS'data'
p279
S"'redirect_uri=http%3A%2F%2F127.0.0.1%3A9000%2Fwel..._id=248577781948157&grant_type=authorization_code'"
p280
sS'response'
p281
g118
sS'self._open'
p282
S'<bound method OpenerDirector._open of <urllib2.OpenerDirector instance>>'
p283
ssg82
I404
sg83
(dp284
I399
S'        meth_name = protocol+"_request"'
p285
sI400
S'        for processor in self.process_request.get(protocol, []):'
p286
sI401
S'            meth = getattr(processor, meth_name)'
p287
sI402
S'            req = meth(req)'
p288
sI403
S''
sI404
S'        response = self._open(req, data)'
p289
sI405
S''
sI406
S'        # post-process response'
p290
sI407
S'        meth_name = protocol+"_response"'
p291
sI408
S'        for processor in self.process_response.get(protocol, []):'
p292
ssg95
S"(self=<urllib2.OpenerDirector instance>, fullurl='https://graph.facebook.com/oauth/access_token', data='redirect_uri=http%3A%2F%2F127.0.0.1%3A9000%2Fwel..._id=248577781948157&grant_type=authorization_code', timeout=60)"
p293
sg97
S'open'
p294
sa(dp295
g74
S'/System/Library/Frameworks/Python.framework/Versions/2.7/lib/python2.7/urllib2.py'
p296
sg76
(dp297
S'req'
p298
S'<urllib2.Request instance>'
p299
ssg82
I422
sg83
(dp300
I417
S'        if result:'
p301
sI418
S'            return result'
p302
sI419
S''
sI420
S'        protocol = req.get_type()'
p303
sI421
S'        result = self._call_chain(self.handle_open, protocol, protocol +'
p304
sI422
S"                                  '_open', req)"
p305
sI423
S'        if result:'
p306
sI424
S'            return result'
p307
sI425
S''
sI426
S"        return self._call_chain(self.handle_open, 'unknown',"
p308
ssg95
S"(self=<urllib2.OpenerDirector instance>, req=<urllib2.Request instance>, data='redirect_uri=http%3A%2F%2F127.0.0.1%3A9000%2Fwel..._id=248577781948157&grant_type=authorization_code')"
p309
sg97
S'_open'
p310
sa(dp311
g74
S'/System/Library/Frameworks/Python.framework/Versions/2.7/lib/python2.7/urllib2.py'
p312
sg76
(dp313
S'args'
p314
S'(<urllib2.Request instance>,)'
p315
sS'result'
p316
g118
sS'func'
p317
S'<bound method HTTPSHandler.https_open of <urllib2.HTTPSHandler instance>>'
p318
ssg82
I382
sg83
(dp319
I384
S'                return result'
p320
sI385
S''
sI386
S'    def open(self, fullurl, data=None, timeout=socket._GLOBAL_DEFAULT_TIMEOUT):'
p321
sI377
S'        # could.  Otherwise, they return the response.'
p322
sI378
S'        handlers = chain.get(kind, ())'
p323
sI379
S'        for handler in handlers:'
p324
sI380
S'            func = getattr(handler, meth_name)'
p325
sI381
S''
sI382
S'            result = func(*args)'
p326
sI383
S'            if result is not None:'
p327
ssg95
S"(self=<urllib2.OpenerDirector instance>, chain={'file': [<urllib2.FileHandler instance>], 'ftp': [<urllib2.FTPHandler instance>], 'http': [<urllib2.HTTPHandler instance>], 'https': [<urllib2.HTTPSHandler instance>], 'unknown': [<urllib2.UnknownHandler instance>]}, kind='https', meth_name='https_open', *args=(<urllib2.Request instance>,))"
p328
sg97
S'_call_chain'
p329
sa(dp330
g74
S'/System/Library/Frameworks/Python.framework/Versions/2.7/lib/python2.7/urllib2.py'
p331
sg76
(dp332
S'self'
p333
S'<urllib2.HTTPSHandler instance>'
p334
sS'req'
p335
S'<urllib2.Request instance>'
p336
sS'global httplib'
p337
S"<module 'httplib' from '/System/Library/Framewor...ramework/Versions/2.7/lib/python2.7/httplib.pyc'>"
p338
sS'self.do_open'
p339
S'<bound method HTTPSHandler.do_open of <urllib2.HTTPSHandler instance>>'
p340
sS'httplib.HTTPSConnection'
p341
S'<class httplib.HTTPSConnection>'
p342
ssg82
I1222
sg83
(dp343
I1217
S''
sI1218
S"if hasattr(httplib, 'HTTPS'):"
p344
sI1219
S'    class HTTPSHandler(AbstractHTTPHandler):'
p345
sI1220
S''
sI1221
S'        def https_open(self, req):'
p346
sI1222
S'            return self.do_open(httplib.HTTPSConnection, req)'
p347
sI1223
S''
sI1224
S'        https_request = AbstractHTTPHandler.do_request_'
p348
sI1225
S''
sI1226
S'class HTTPCookieProcessor(BaseHandler):'
p349
ssg95
S'(self=<urllib2.HTTPSHandler instance>, req=<urllib2.Request instance>)'
p350
sg97
S'https_open'
p351
sa(dp352
g74
S'/System/Library/Frameworks/Python.framework/Versions/2.7/lib/python2.7/urllib2.py'
p353
sg76
(dp354
S'err'
p355
S"SSLError(8, '_ssl.c:504: EOF occurred in violation of protocol')"
p356
sS'global URLError'
p357
S"<class 'urllib2.URLError'>"
p358
ssg82
I1184
sg83
(dp359
I1184
S'            raise URLError(err)'
p360
sI1185
S'        else:'
p361
sI1186
S'            try:'
p362
sI1187
S'                r = h.getresponse(buffering=True)'
p363
sI1188
S'            except TypeError: # buffering kw not supported'
p364
sI1179
S''
sI1180
S'        try:'
p365
sI1181
S'            h.request(req.get_method(), req.get_selector(), req.data, headers)'
p366
sI1182
S'        except socket.error, err: # XXX what error?'
p367
sI1183
S'            h.close()'
p368
ssg95
S'(self=<urllib2.HTTPSHandler instance>, http_class=<class httplib.HTTPSConnection>, req=<urllib2.Request instance>)'
p369
sg97
S'do_open'
p370
sasS'pyver'
p371
S'Python 2.7.5: /usr/bin/python (prefix: /System/Library/Frameworks/Python.framework/Versions/2.7)'
p372
sS'session'
p373
g69
(S's1\x01\x00\x00<div><table><tr><td style="font-weight:bold;vertical-align:top">redirect_uri</td><td valign="top">:</td><td><div>http://127.0.0.1:9000/welcome/default/user/login</div></td></tr><tr><td style="font-weight:bold;vertical-align:top">token</td><td valign="top">:</td><td><div>None</div></td></tr></table></div>'
tRp374
sS'etype'
p375
S"<class 'urllib2.URLError'>"
p376
sS'date'
p377
S'Wed Jan 22 15:30:45 2014'
p378
sS'response'
p379
g69
(S's\xb2,\x00\x00<div><table><tr><td style="font-weight:bold;vertical-align:top">body</td><td valign="top">:</td><td><div>&lt;cStringIO.StringO object at 0x10c8d9ce0&gt;</div></td></tr><tr><td style="font-weight:bold;vertical-align:top">cookies</td><td valign="top">:</td><td><div><table><tr><td style="font-weight:bold;vertical-align:top">session_id_welcome</td><td valign="top">:</td><td><div>127.0.0.1-9b85eeb0-9486-4741-889d-55c1a771ff56<table><tr><td style="font-weight:bold;vertical-align:top">comment</td><td valign="top">:</td><td><div></div></td></tr><tr><td style="font-weight:bold;vertical-align:top">domain</td><td valign="top">:</td><td><div></div></td></tr><tr><td style="font-weight:bold;vertical-align:top">expires</td><td valign="top">:</td><td><div></div></td></tr><tr><td style="font-weight:bold;vertical-align:top">httponly</td><td valign="top">:</td><td><div></div></td></tr><tr><td style="font-weight:bold;vertical-align:top">max-age</td><td valign="top">:</td><td><div></div></td></tr><tr><td style="font-weight:bold;vertical-align:top">path</td><td valign="top">:</td><td><div>/</div></td></tr><tr><td style="font-weight:bold;vertical-align:top">secure</td><td valign="top">:</td><td><div></div></td></tr><tr><td style="font-weight:bold;vertical-align:top">version</td><td valign="top">:</td><td><div></div></td></tr></table></div></td></tr></table></div></td></tr><tr><td style="font-weight:bold;vertical-align:top">delimiters</td><td valign="top">:</td><td><div><table><tr><td><div>{{</div></td></tr><tr><td><div>}}</div></td></tr></table></div></td></tr><tr><td style="font-weight:bold;vertical-align:top">files</td><td valign="top">:</td><td><div><table></table></div></td></tr><tr><td style="font-weight:bold;vertical-align:top">flash</td><td valign="top">:</td><td><div></div></td></tr><tr><td style="font-weight:bold;vertical-align:top">generic_patterns</td><td valign="top">:</td><td><div><table></table></div></td></tr><tr><td style="font-weight:bold;vertical-align:top">google_analytics_id</td><td valign="top">:</td><td><div>None</div></td></tr><tr><td style="font-weight:bold;vertical-align:top">headers</td><td valign="top">:</td><td><div><table><tr><td style="font-weight:bold;vertical-align:top">X-Powered-By</td><td valign="top">:</td><td><div>web2py</div></td></tr></table></div></td></tr><tr><td style="font-weight:bold;vertical-align:top">logo</td><td valign="top">:</td><td><div><a class="brand" href="http://www.web2py.com/"><b>web<span>2</span>py</b>&trade;&nbsp;</a></div></td></tr><tr><td style="font-weight:bold;vertical-align:top">menu</td><td valign="top">:</td><td><div><table><tr><td><div><table><tr><td><div>Accueil</div></td></tr><tr><td><div>False</div></td></tr><tr><td><div>/welcome/default/index</div></td></tr><tr><td><div><table></table></div></td></tr></table></div></td></tr><tr><td><div><table><tr><td><div><span class="highlighted">web2py</span></div></td></tr><tr><td><div>False</div></td></tr><tr><td><div>http://web2py.com</div></td></tr><tr><td><div><table><tr><td><div><table><tr><td><div>My Sites</div></td></tr><tr><td><div>False</div></td></tr><tr><td><div>/admin/default/site</div></td></tr></table></div></td></tr><tr><td><div><table><tr><td><div>Cette Appli</div></td></tr><tr><td><div>False</div></td></tr><tr><td><div>/admin/default/design/welcome</div></td></tr><tr><td><div>[(&lt;lazyT &#x27;Controller&#x27;&gt;, False, &#x27;/admin/default/edit/welcome/controllers/default.py&#x27;), (&lt;lazyT &#x27;View&#x27;&gt;, False, &#x27;/admin/default/edit/welcome/views/default/user.html&#x27;), (&lt;lazyT &#x27;Layout&#x27;&gt;, False, &#x27;/admin/default/edit/welcome/views/layout.html&#x27;), (&lt;lazyT &#x27;Stylesheet&#x27;&gt;, False, &#x27;/admin/default/edit/welcome/static/css/web2py.css&#x27;), (&lt;lazyT &#x27;DB Model&#x27;&gt;, False, &#x27;/admin/default/edit/welcome/models/db.py&#x27;), (&lt;lazyT &#x27;Menu Model&#x27;&gt;, False, &#x27;/admin/default/edit/welcome/models/menu.py&#x27;), (&lt;lazyT &#x27;Database&#x27;&gt;, False, &#x27;/welcome/appadmin/index&#x27;), (&lt;lazyT &#x27;Errors&#x27;&gt;, False, &#x27;/admin/default/errors/welcome&#x27;), (&lt;lazyT &#x27;About&#x27;&gt;, False, &#x27;/admin/default/about/welcome&#x27;)]</div></td></tr></table></div></td></tr><tr><td><div><table><tr><td><div>web2py.com</div></td></tr><tr><td><div>False</div></td></tr><tr><td><div>http://www.web2py.com</div></td></tr><tr><td><div>[(&lt;lazyT &#x27;Download&#x27;&gt;, False, &#x27;http://www.web2py.com/examples/default/download&#x27;), (&lt;lazyT &#x27;Support&#x27;&gt;, False, &#x27;http://www.web2py.com/examples/default/support&#x27;), (&lt;lazyT &#x27;Demo&#x27;&gt;, False, &#x27;http://web2py.com/demo_admin&#x27;), (&lt;lazyT &#x27;Quick Examples&#x27;&gt;, False, &#x27;http://web2py.com/examples/default/examples&#x27;), (&lt;lazyT &#x27;FAQ&#x27;&gt;, False, &#x27;http://web2py.com/AlterEgo&#x27;), (&lt;lazyT &#x27;Videos&#x27;&gt;, False, &#x27;http://www.web2py.com/examples/default/videos/&#x27;), (&lt;lazyT &#x27;Free Applications&#x27;&gt;, False, &#x27;http://web2py.com/appliances&#x27;), (&lt;lazyT &#x27;Plugins&#x27;&gt;, False, &#x27;http://web2py.com/plugins&#x27;), (&lt;lazyT &#x27;Layouts&#x27;&gt;, False, &#x27;http://web2py.com/layouts&#x27;), (&lt;lazyT &#x27;Recipes&#x27;&gt;, False, &#x27;http://web2pyslices.com/&#x27;), (&lt;lazyT &#x27;Semantic&#x27;&gt;, False, &#x27;http://web2py.com/semantic&#x27;)]</div></td></tr></table></div></td></tr><tr><td><div><table><tr><td><div>Documentation</div></td></tr><tr><td><div>False</div></td></tr><tr><td><div>http://www.web2py.com/book</div></td></tr><tr><td><div>[(&lt;lazyT &#x27;Preface&#x27;&gt;, False, &#x27;http://www.web2py.com/book/default/chapter/00&#x27;), (&lt;lazyT &#x27;Introduction&#x27;&gt;, False, &#x27;http://www.web2py.com/book/default/chapter/01&#x27;), (&lt;lazyT &#x27;Python&#x27;&gt;, False, &#x27;http://www.web2py.com/book/default/chapter/02&#x27;), (&lt;lazyT &#x27;Overview&#x27;&gt;, False, &#x27;http://www.web2py.com/book/default/chapter/03&#x27;), (&lt;lazyT &#x27;The Core&#x27;&gt;, False, &#x27;http://www.web2py.com/book/default/chapter/04&#x27;), (&lt;lazyT &#x27;The Views&#x27;&gt;, False, &#x27;http://www.web2py.com/book/default/chapter/05&#x27;), (&lt;lazyT &#x27;Database&#x27;&gt;, False, &#x27;http://www.web2py.com/book/default/chapter/06&#x27;), (&lt;lazyT &#x27;Forms and Validators&#x27;&gt;, False, &#x27;http://www.web2py.com/book/default/chapter/07&#x27;), (&lt;lazyT &#x27;Email and SMS&#x27;&gt;, False, &#x27;http://www.web2py.com/book/default/chapter/08&#x27;), (&lt;lazyT &#x27;Access Control&#x27;&gt;, False, &#x27;http://www.web2py.com/book/default/chapter/09&#x27;), (&lt;lazyT &#x27;Services&#x27;&gt;, False, &#x27;http://www.web2py.com/book/default/chapter/10&#x27;), (&lt;lazyT &#x27;Ajax Recipes&#x27;&gt;, False, &#x27;http://www.web2py.com/book/default/chapter/11&#x27;), (&lt;lazyT &#x27;Components and Plugins&#x27;&gt;, False, &#x27;http://www.web2py.com/book/default/chapter/12&#x27;), (&lt;lazyT &#x27;Deployment Recipes&#x27;&gt;, False, &#x27;http://www.web2py.com/book/default/chapter/13&#x27;), (&lt;lazyT &#x27;Other Recipes&#x27;&gt;, False, &#x27;http://www.web2py.com/book/default/chapter/14&#x27;), (&lt;lazyT &#x27;Buy this book&#x27;&gt;, False, &#x27;http://stores.lulu.com/web2py&#x27;)]</div></td></tr></table></div></td></tr><tr><td><div><table><tr><td><div>Communaut\xc3\xa9</div></td></tr><tr><td><div>False</div></td></tr><tr><td><div>None</div></td></tr><tr><td><div>[(&lt;lazyT &#x27;Groups&#x27;&gt;, False, &#x27;http://www.web2py.com/examples/default/usergroups&#x27;), (&lt;lazyT &#x27;Twitter&#x27;&gt;, False, &#x27;http://twitter.com/web2py&#x27;), (&lt;lazyT &#x27;Live Chat&#x27;&gt;, False, &#x27;http://webchat.freenode.net/?channels=web2py&#x27;)]</div></td></tr></table></div></td></tr><tr><td><div><table><tr><td><div>Plugiciels</div></td></tr><tr><td><div>False</div></td></tr><tr><td><div>None</div></td></tr><tr><td><div>[(&#x27;plugin_wiki&#x27;, False, &#x27;http://web2py.com/examples/default/download&#x27;), (&lt;lazyT &#x27;Other Plugins&#x27;&gt;, False, &#x27;http://web2py.com/plugins&#x27;), (&lt;lazyT &#x27;Layout Plugins&#x27;&gt;, False, &#x27;http://web2py.com/layouts&#x27;)]</div></td></tr></table></div></td></tr></table></div></td></tr></table></div></td></tr></table></div></td></tr><tr><td style="font-weight:bold;vertical-align:top">meta</td><td valign="top">:</td><td><div><table><tr><td style="font-weight:bold;vertical-align:top">author</td><td valign="top">:</td><td><div>Your Name &lt;you@example.com&gt;</div></td></tr><tr><td style="font-weight:bold;vertical-align:top">description</td><td valign="top">:</td><td><div>a cool new app</div></td></tr><tr><td style="font-weight:bold;vertical-align:top">generator</td><td valign="top">:</td><td><div>Web2py Web Framework</div></td></tr><tr><td style="font-weight:bold;vertical-align:top">keywords</td><td valign="top">:</td><td><div>web2py, python, framework</div></td></tr></table></div></td></tr><tr><td style="font-weight:bold;vertical-align:top">models_to_run</td><td valign="top">:</td><td><div><table><tr><td><div>^\\w+\\.py$</div></td></tr><tr><td><div>^default/\\w+\\.py$</div></td></tr><tr><td><div>^default/user/\\w+\\.py$</div></td></tr></table></div></td></tr><tr><td style="font-weight:bold;vertical-align:top">postprocessing</td><td valign="top">:</td><td><div><table></table></div></td></tr><tr><td style="font-weight:bold;vertical-align:top">session_cookie_expires</td><td valign="top">:</td><td><div>None</div></td></tr><tr><td style="font-weight:bold;vertical-align:top">session_data_name</td><td valign="top">:</td><td><div>session_data_welcome</div></td></tr><tr><td style="font-weight:bold;vertical-align:top">session_file</td><td valign="top">:</td><td><div>&lt;open file &#x27;/Users/huyheo/Documents/huy/blogging/web2py/applications/welcome/sessions/127.0.0.1-9b85eeb0-9486-4741-889d-55c1a771ff56&#x27;, mode &#x27;rb+&#x27; at 0x107530030&gt;</div></td></tr><tr><td style="font-weight:bold;vertical-align:top">session_filename</td><td valign="top">:</td><td><div>/Users/huyheo/Documents/huy/blogging/web2py/applications/welcome/sessions/127.0.0.1-9b85eeb0-9486-4741-889d-55c1a771ff56</div></td></tr><tr><td style="font-weight:bold;vertical-align:top">session_id</td><td valign="top">:</td><td><div>127.0.0.1-9b85eeb0-9486-4741-889d-55c1a771ff56</div></td></tr><tr><td style="font-weight:bold;vertical-align:top">session_id_name</td><td valign="top">:</td><td><div>session_id_welcome</div></td></tr><tr><td style="font-weight:bold;vertical-align:top">session_locked</td><td valign="top">:</td><td><div>True</div></td></tr><tr><td style="font-weight:bold;vertical-align:top">session_new</td><td valign="top">:</td><td><div>False</div></td></tr><tr><td style="font-weight:bold;vertical-align:top">session_storage_type</td><td valign="top">:</td><td><div>file</div></td></tr><tr><td style="font-weight:bold;vertical-align:top">status</td><td valign="top">:</td><td><div>200</div></td></tr><tr><td style="font-weight:bold;vertical-align:top">subtitle</td><td valign="top">:</td><td><div>personnalisez-moi!</div></td></tr><tr><td style="font-weight:bold;vertical-align:top">title</td><td valign="top">:</td><td><div>Welcome</div></td></tr><tr><td style="font-weight:bold;vertical-align:top">view</td><td valign="top">:</td><td><div>default/user.html</div></td></tr></table></div>'
tRp380
sS'locals'
p381
(dp382
S'err'
p383
S"SSLError(8, '_ssl.c:504: EOF occurred in violation of protocol')"
p384
sS'h'
S'<httplib.HTTPSConnection instance>'
p385
sS'self'
p386
S'<urllib2.HTTPSHandler instance>'
p387
sS'req'
p388
S'<urllib2.Request instance>'
p389
sS'headers'
p390
S"{'Connection': 'close', 'Content-Length': '509', 'Content-Type': 'application/x-www-form-urlencoded', 'Host': 'graph.facebook.com', 'User-Agent': 'Python-urllib/2.7'}"
p391
sS'host'
p392
S"'graph.facebook.com'"
p393
sS'http_class'
p394
S'<class httplib.HTTPSConnection>'
p395
sssS'traceback'
p396
S'Traceback (most recent call last):\n  File "/Users/huyheo/Documents/huy/blogging/web2py/gluon/restricted.py", line 212, in restricted\n    exec ccode in environment\n  File "/Users/huyheo/Documents/huy/blogging/web2py/applications/welcome/controllers/default.py", line 343, in <module>\n  File "/Users/huyheo/Documents/huy/blogging/web2py/gluon/globals.py", line 194, in <lambda>\n    self._caller = lambda f: f()\n  File "/Users/huyheo/Documents/huy/blogging/web2py/applications/welcome/controllers/default.py", line 56, in user\n    return dict(form = auth())\n  File "/Users/huyheo/Documents/huy/blogging/web2py/gluon/tools.py", line 1287, in __call__\n    return getattr(self, args[0])()\n  File "/Users/huyheo/Documents/huy/blogging/web2py/gluon/tools.py", line 2177, in login\n    redirect(cas.login_url(next),\n  File "/Users/huyheo/Documents/huy/blogging/web2py/gluon/contrib/login_methods/oauth20_account.py", line 228, in login_url\n    self.__oauth_login(next)\n  File "/Users/huyheo/Documents/huy/blogging/web2py/gluon/contrib/login_methods/oauth20_account.py", line 279, in __oauth_login\n    token = self.accessToken()\n  File "/Users/huyheo/Documents/huy/blogging/web2py/gluon/contrib/login_methods/oauth20_account.py", line 164, in accessToken\n    open_url = opener.open(self.token_url, urlencode(data), self.socket_timeout)\n  File "/System/Library/Frameworks/Python.framework/Versions/2.7/lib/python2.7/urllib2.py", line 404, in open\n    response = self._open(req, data)\n  File "/System/Library/Frameworks/Python.framework/Versions/2.7/lib/python2.7/urllib2.py", line 422, in _open\n    \'_open\', req)\n  File "/System/Library/Frameworks/Python.framework/Versions/2.7/lib/python2.7/urllib2.py", line 382, in _call_chain\n    result = func(*args)\n  File "/System/Library/Frameworks/Python.framework/Versions/2.7/lib/python2.7/urllib2.py", line 1222, in https_open\n    return self.do_open(httplib.HTTPSConnection, req)\n  File "/System/Library/Frameworks/Python.framework/Versions/2.7/lib/python2.7/urllib2.py", line 1184, in do_open\n    raise URLError(err)\nURLError: <urlopen error [Errno 8] _ssl.c:504: EOF occurred in violation of protocol>\n'
p397
s.